(dp0
I75777
(lp1
F47.60876561582132
aF-122.33239428127969
asI75778
(lp2
F47.60882248238363
aF-122.33223664948454
asI57349
(lp3
F47.601293114699146
aF-122.3329684683332
asI57350
(lp4
F47.60129280835181
aF-122.33278201467587
asI12289
(lp5
F47.62502302408768
aF-122.35681136579518
asI57353
(lp6
F47.59872592900123
aF-122.33297326374196
asI75786
(lp7
F47.61786446514819
aF-122.34401361219793
asI79885
(lp8
F47.6124071189407
aF-122.32652887656175
asI79886
(lp9
F47.61247156986197
aF-122.32637330044088
asI35501
(lp10
F47.61034247720022
aF-122.32523539127595
asI34837
(lp11
F47.610500492140886
aF-122.33621418418676
asI34838
(lp12
F47.61039682883093
aF-122.33607667092718
asI55641
(lp13
F47.62261088277574
aF-122.33443904805412
asI53125
(lp14
F47.61624161736236
aF-122.34163950172015
asI34841
(lp15
F47.610955669993515
aF-122.33510107318925
asI11881
(lp16
F47.61911050857535
aF-122.33309007561564
asI77130
(lp17
F47.61765923075879
aF-122.34085747503613
asI31066
(lp18
F47.62148494392393
aF-122.34096173563663
asI75781
(lp19
F47.61061354057215
aF-122.33409932492505
asI1433
(lp20
F47.66606051743241
aF-122.37081592817964
asI57377
(lp21
F47.612485567448005
aF-122.33802770880101
asI34850
(lp22
F47.61278876960246
aF-122.33367260903282
asI2085
(lp23
F47.71669665645349
aF-122.3124729176854
asI10278
(lp24
F47.65026916271218
aF-122.35121173239662
asI32433
(lp25
F47.61801685825334
aF-122.34788709996953
asI10281
(lp26
F47.6735199104003
aF-122.35146119077459
asI2090
(lp27
F47.724218061377655
aF-122.31257477696336
asI76406
(lp28
F47.607377238309724
aF-122.32629794028118
asI43053
(lp29
F47.59835946027541
aF-122.33367755846245
asI43054
(lp30
F47.59822242705768
aF-122.33370429625103
asI8541
(lp31
F47.66221258566904
aF-122.31835608342506
asI43057
(lp32
F47.59841241769105
aF-122.32701505934216
asI43058
(lp33
F47.59829728515687
aF-122.32702152479139
asI79654
(lp34
F47.6060353954052
aF-122.33051508818724
asI6197
(lp35
F47.72911084070761
aF-122.32539579892415
asI6198
(lp36
F47.72953177449031
aF-122.32523322394616
asI65545
(lp37
F47.59926346670409
aF-122.33481763394647
asI8249
(lp38
F47.63003930225801
aF-122.36652397327705
asI57354
(lp39
F47.59872562845068
aF-122.33278681944714
asI14398
(lp40
F47.61191343904329
aF-122.31878898745856
asI91829
(lp41
F47.62578126819689
aF-122.35863818667812
asI35846
(lp42
F47.66216493257963
aF-122.31303072097165
asI34881
(lp43
F47.62139227033836
aF-122.3318292142112
asI34882
(lp44
F47.621391633808514
aF-122.33158591274682
asI1025
(lp45
F47.51056849801712
aF-122.38856974573295
asI34885
(lp46
F47.622543564904646
aF-122.33181626223468
asI41030
(lp47
F47.67010836997169
aF-122.38614289667372
asI55369
(lp48
F47.61913275172465
aF-122.34254682877082
asI34890
(lp49
F47.624515057943064
aF-122.33164180419035
asI55373
(lp50
F47.62030600627869
aF-122.34254890047825
asI55374
(lp51
F47.620302002617606
aF-122.34222454269255
asI69098
(lp52
F47.594070466196555
aF-122.33404633404983
asI55377
(lp53
F47.62379306951754
aF-122.3425184654463
asI55378
(lp54
F47.62390932582572
aF-122.34219302822092
asI24553
(lp55
F47.60865499192431
aF-122.31688534500151
asI34489
(lp56
F47.617949276709375
aF-122.33257422301838
asI27281
(lp57
F47.61680067519423
aF-122.34849303448775
asI75865
(lp58
F47.59793463930587
aF-122.32645061317464
asI75866
(lp59
F47.59793433940521
aF-122.32628038384664
asI7997
(lp60
F47.57665111312569
aF-122.32610023315361
asI57018
(lp61
F47.597073043711276
aF-122.32499081262698
asI82014
(lp62
F47.62194122307888
aF-122.32036323002052
asI1026
(lp63
F47.677118561422674
aF-122.32419588401521
asI79042
(lp64
F47.6196057447772
aF-122.32987656232751
asI47969
(lp65
F47.60972803564188
aF-122.33947103046516
asI8301
(lp66
F47.640287934061455
aF-122.3430284073166
asI8302
(lp67
F47.6412156192078
aF-122.34362356651465
asI11665
(lp68
F47.60567220891612
aF-122.33170658973705
asI8305
(lp69
F47.61275443871375
aF-122.28217069094791
asI55410
(lp70
F47.60183383423815
aF-122.32983097775757
asI23881
(lp71
F47.62577670591928
aF-122.35741854750734
asI14697
(lp72
F47.62317744836444
aF-122.32146756564165
asI47225
(lp73
F47.66050168023115
aF-122.31206203859497
asI34938
(lp74
F47.623914516465746
aF-122.35662950763165
asI79789
(lp75
F47.62432641377102
aF-122.32980024183837
asI9698
(lp76
F47.606922220790736
aF-122.32370125479946
asI80001
(lp77
F47.59675354131451
aF-122.33338994139405
asI80002
(lp78
F47.59675299049107
aF-122.33312244497165
asI77126
(lp79
F47.61701942193975
aF-122.34168548952653
asI6166
(lp80
F47.64188342485771
aF-122.34963644655947
asI55430
(lp81
F47.617310651788976
aF-122.35417118496241
asI32909
(lp82
F47.62147136414777
aF-122.34254291912794
asI32910
(lp83
F47.62148097878353
aF-122.34221032631942
asI18622
(lp84
F47.63161134169103
aF-122.37460469222366
asI80017
(lp85
F47.61341114626998
aF-122.33581203912331
asI80021
(lp86
F47.613879477017186
aF-122.3346818010554
asI58393
(lp87
F47.60183503772559
aF-122.32904073393945
asI24442
(lp88
F47.65659996834033
aF-122.31662702803817
asI120175
(lp89
F47.631505303450936
aF-122.34062351211014
asI80894
(lp90
F47.61590837417391
aF-122.33392948766738
asI55453
(lp91
F47.631105177877146
aF-122.32714440888475
asI35525
(lp92
F47.61400074417283
aF-122.33666036376889
asI4438
(lp93
F47.6630531070023
aF-122.36085361815802
asI88774
(lp94
F47.59996247015803
aF-122.32567867622576
asI36490
(lp95
F47.607973617951615
aF-122.31086087182385
asI57513
(lp96
F47.61233289979262
aF-122.33173301072239
asI79658
(lp97
F47.60696067276922
aF-122.32827965927314
asI57517
(lp98
F47.613255805952676
aF-122.32960109872492
asI57518
(lp99
F47.61316148643257
aF-122.3294103147932
asI19485
(lp100
F47.55488339325046
aF-122.33329615920216
asI8369
(lp101
F47.65910375040255
aF-122.36606573958215
asI8370
(lp102
F47.65964201160791
aF-122.36612724185728
asI56350
(lp103
F47.61964815307056
aF-122.34299758547351
asI8374
(lp104
F47.661827202323906
aF-122.36607495358967
asI54985
(lp105
F47.618060271268725
aF-122.34947862505726
asI8377
(lp106
F47.66401482523483
aF-122.36629989647606
asI53434
(lp107
F47.61704158854647
aF-122.3406259276249
asI59950
(lp108
F47.61402358045537
aF-122.32586835792296
asI1029
(lp109
F47.623915651789815
aF-122.35549856804937
asI43197
(lp110
F47.60010352718728
aF-122.32827558313852
asI8382
(lp111
F47.66754627213878
aF-122.36629044728414
asI32030
(lp112
F47.61568046145278
aF-122.3433964768933
asI8389
(lp113
F47.67271419848989
aF-122.36626299243747
asI8390
(lp114
F47.63266296838387
aF-122.37435409585879
asI13345
(lp115
F47.66665081469641
aF-122.28962338668887
asI1234
(lp116
F47.71892293084137
aF-122.30362124682671
asI8393
(lp117
F47.674897567799604
aF-122.36595764873383
asI8394
(lp118
F47.675626074129895
aF-122.36614768104292
asI24557
(lp119
F47.61099117623808
aF-122.31692100988519
asI57549
(lp120
F47.62370100523937
aF-122.3318233686297
asI57550
(lp121
F47.62367967291297
aF-122.33162048149
asI34509
(lp122
F47.62256498529476
aF-122.33309802483348
asI8401
(lp123
F47.68362830588481
aF-122.36592423384255
asI8402
(lp124
F47.684362098190604
aF-122.36614174633624
asI32461
(lp125
F47.60286449755358
aF-122.33374264230224
asI34510
(lp126
F47.62254232800684
aF-122.33288297534442
asI8406
(lp127
F47.68656528714162
aF-122.36591734093679
asI32121
(lp128
F47.62025937607176
aF-122.33596332811229
asI78041
(lp129
F47.618080679458956
aF-122.35347809739139
asI78042
(lp130
F47.61798174022559
aF-122.35332596632337
asI57565
(lp131
F47.603360631763294
aF-122.33590462769543
asI10277
(lp132
F47.66465770820657
aF-122.35141248597716
asI13510
(lp133
F47.61380286721726
aF-122.34907830697296
asI54953
(lp134
F47.61685193508683
aF-122.34942030580771
asI57382
(lp135
F47.614244145632156
aF-122.33345044483355
asI57574
(lp136
F47.60146408735911
aF-122.32986266948079
asI80593
(lp137
F47.67455854387131
aF-122.31744442365141
asI77546
(lp138
F47.60320717250068
aF-122.3325694352267
asI81706
(lp139
F47.60165986049979
aF-122.33108794572586
asI32466
(lp140
F47.60553136392968
aF-122.32700514923982
asI35197
(lp141
F47.623262357805174
aF-122.33651595237004
asI13306
(lp142
F47.618191476479424
aF-122.3457223102788
asI78069
(lp143
F47.61914075957036
aF-122.32926953077649
asI86057
(lp144
F47.67952586895309
aF-122.32526037991678
asI30969
(lp145
F47.61392753442913
aF-122.33576155670454
asI30970
(lp146
F47.613986519696894
aF-122.33560928036019
asI57386
(lp147
F47.61563589340793
aF-122.3301303561209
asI30974
(lp148
F47.61832102842615
aF-122.34296812556454
asI76033
(lp149
F47.604976768510625
aF-122.32739197333703
asI12546
(lp150
F47.504474709100016
aF-122.25239539966458
asI12549
(lp151
F47.50277842870423
aF-122.25084147282429
asI12550
(lp152
F47.50183513252907
aF-122.25025824790174
asI12673
(lp153
F47.62550547895246
aF-122.35349226837604
asI65801
(lp154
F47.600108374943844
aF-122.3348861276987
asI37130
(lp155
F47.61402599917543
aF-122.32649878016589
asI76045
(lp156
F47.61108436136939
aF-122.33298144918065
asI76046
(lp157
F47.611141137641425
aF-122.33283793831185
asI51473
(lp158
F47.60639351150435
aF-122.3333652395771
asI51474
(lp159
F47.60648441022734
aF-122.3331480843614
asI51489
(lp160
F47.61489404456567
aF-122.34333423534868
asI28949
(lp161
F47.608672858222505
aF-122.33544037320156
asI65814
(lp162
F47.599964477349516
aF-122.3269760628063
asI28953
(lp163
F47.61568669107372
aF-122.34465728141092
asI28954
(lp164
F47.61581882767692
aF-122.3444865659047
asI11778
(lp165
F47.62421890019205
aF-122.33108561814726
asI51485
(lp166
F47.61261361414712
aF-122.33945814197759
asI28958
(lp167
F47.61701843481657
aF-122.34655240568941
asI28961
(lp168
F47.61800902928509
aF-122.34857310854196
asI51490
(lp169
F47.6150388549688
aF-122.34320344802549
asI120102
(lp170
F47.628236323806554
aF-122.3293863130666
asI79681
(lp171
F47.5962686550823
aF-122.32515195317622
asI78117
(lp172
F47.613576303091826
aF-122.35100448782532
asI51494
(lp173
F47.61914515709512
aF-122.34879147611073
asI58417
(lp174
F47.61522546156017
aF-122.3321728618103
asI74025
(lp175
F47.61339089934964
aF-122.34076077949473
asI53546
(lp176
F47.62586105012836
aF-122.34090995589813
asI12285
(lp177
F47.67010531594977
aF-122.3317447089014
asI53549
(lp178
F47.62820087537801
aF-122.34111554024514
asI53550
(lp179
F47.62817887841722
aF-122.34086054839736
asI2781
(lp180
F47.630479429961014
aF-122.35269623399154
asI80177
(lp181
F47.60818178574007
aF-122.3421773810396
asI65546
(lp182
F47.59913738935318
aF-122.33483626798113
asI59954
(lp183
F47.614022896299176
aF-122.32499531229803
asI1033
(lp184
F47.51099209421626
aF-122.27014795154918
asI82654
(lp185
F47.6251809604648
aF-122.32051137517965
asI37174
(lp186
F47.61514534549609
aF-122.32587887831392
asI80185
(lp187
F47.61378179651785
aF-122.32836672833969
asI37178
(lp188
F47.61516782267118
aF-122.32393320028251
asI12682
(lp189
F47.62507257956926
aF-122.33340053517244
asI80949
(lp190
F47.614679073948295
aF-122.32561509224813
asI13445
(lp191
F47.633588019489316
aF-122.35437295479682
asI80193
(lp192
F47.608812921717856
aF-122.34348254967398
asI80194
(lp193
F47.608731854207676
aF-122.34332117155066
asI77549
(lp194
F47.60376906815629
aF-122.33155792720136
asI76101
(lp195
F47.59958790767766
aF-122.32387007014285
asI80198
(lp196
F47.6094665003137
aF-122.34155326624429
asI58081
(lp197
F47.6082543477989
aF-122.33262443727966
asI76105
(lp198
F47.59874621692645
aF-122.32386143979306
asI76106
(lp199
F47.59874577536645
aF-122.3236425704417
asI54305
(lp200
F47.613877828110645
aF-122.34830870398561
asI35430
(lp201
F47.60954537460247
aF-122.32918411136338
asI14673
(lp202
F47.6283854957431
aF-122.31512322071748
asI12218
(lp203
F47.611941174481935
aF-122.33597896674263
asI9422
(lp204
F47.63847940753284
aF-122.32913175264792
asI4433
(lp205
F47.65390838253697
aF-122.36088757151327
asI4434
(lp206
F47.654540226071205
aF-122.36088722379603
asI32022
(lp207
F47.61368424082326
aF-122.3459732526891
asI4437
(lp208
F47.66264039604349
aF-122.36073032454304
asI55638
(lp209
F47.62139096336493
aF-122.33420192777547
asI66617
(lp210
F47.59758636382925
aF-122.32472993202535
asI13514
(lp211
F47.61600693788195
aF-122.35280637279817
asI4441
(lp212
F47.664705709899906
aF-122.36073793466777
asI4442
(lp213
F47.66536325669625
aF-122.36086109891113
asI46458
(lp214
F47.62269710906628
aF-122.35795357835973
asI4445
(lp215
F47.67985973328324
aF-122.32180491866748
asI8542
(lp216
F47.5979293484217
aF-122.32235274347934
asI58085
(lp217
F47.61107790417485
aF-122.3259129558612
asI80538
(lp218
F47.62319220426754
aF-122.35471799464213
asI20833
(lp219
F47.55050842012308
aF-122.28414162303238
asI20834
(lp220
F47.55049180290673
aF-122.28210818886049
asI20837
(lp221
F47.5503743585932
aF-122.27401797203211
asI20838
(lp222
F47.55043306853664
aF-122.27127925187207
asI75153
(lp223
F47.60687894572989
aF-122.3322015953615
asI20841
(lp224
F47.543700521261016
aF-122.33467498942241
asI14698
(lp225
F47.615168323597565
aF-122.32277927400274
asI36358
(lp226
F47.601657847675796
aF-122.3277066988934
asI20845
(lp227
F47.545431922435064
aF-122.32895378292355
asI20846
(lp228
F47.545734823713246
aF-122.32779217201293
asI14397
(lp229
F47.611994461167015
aF-122.31898868108999
asI3081
(lp230
F47.527388685813605
aF-122.35905807825036
asI9278
(lp231
F47.61302494774243
aF-122.34684189248827
asI33142
(lp232
F47.61911852506884
aF-122.33419318227652
asI77545
(lp233
F47.60331351993719
aF-122.33266197467981
asI33145
(lp234
F47.620266596858045
aF-122.33444693735967
asI33146
(lp235
F47.6202412515059
aF-122.33419944252225
asI34518
(lp236
F47.626326405096975
aF-122.33247212898775
asI39293
(lp237
F47.65540466720695
aF-122.31272946211612
asI64321
(lp238
F47.668762372938815
aF-122.38694391251293
asI11669
(lp239
F47.60749512147793
aF-122.32729495856108
asI35201
(lp240
F47.623189868601486
aF-122.33109516156716
asI35202
(lp241
F47.62305276134997
aF-122.33110642642266
asI59049
(lp242
F47.60180779723739
aF-122.3345228543193
asI58610
(lp243
F47.61360089964863
aF-122.35167048189216
asI94602
(lp244
F47.62644919382623
aF-122.33413244832015
asI9277
(lp245
F47.725930135739084
aF-122.35358568072022
asI56690
(lp246
F47.61602423709439
aF-122.33838308640696
asI2797
(lp247
F47.653938185141406
aF-122.32679314403183
asI80273
(lp248
F47.620356027469455
aF-122.35682373026157
asI80274
(lp249
F47.620354137029345
aF-122.35666154826083
asI94611
(lp250
F47.628312248662716
aF-122.33167586571801
asI94612
(lp251
F47.62923993143269
aF-122.33049131600916
asI80277
(lp252
F47.62150583687382
aF-122.35681514648897
asI80278
(lp253
F47.621502517764284
aF-122.35665297371001
asI81305
(lp254
F47.617359615753
aF-122.33463729638376
asI68550
(lp255
F47.61971607306435
aF-122.35741848197694
asI8601
(lp256
F47.605151480302894
aF-122.32449967983078
asI76186
(lp257
F47.609051696899556
aF-122.32941215751407
asI11674
(lp258
F47.60883396025433
aF-122.32387060280348
asI70725
(lp259
F47.60201882937099
aF-122.33241002161716
asI8609
(lp260
F47.71876424397598
aF-122.36773325071015
asI35234
(lp261
F47.657217137485155
aF-122.31772899537836
asI8613
(lp262
F47.6150740435955
aF-122.33368967931801
asI76198
(lp263
F47.62032487003018
aF-122.34098396665196
asI55025
(lp264
F47.6072659211312
aF-122.3255313247002
asI35241
(lp265
F47.66143503637502
aF-122.3176429213672
asI8618
(lp266
F47.531033215409266
aF-122.34668770818732
asI8625
(lp267
F47.62880791777667
aF-122.3688797890362
asI14770
(lp268
F47.6839748651141
aF-122.35931207982
asI76054
(lp269
F47.6162880960033
aF-122.33933278976869
asI13790
(lp270
F47.60434405771943
aF-122.29943046544224
asI82362
(lp271
F47.624205107071724
aF-122.3203997842702
asI94651
(lp272
F47.60423519659949
aF-122.33045144366316
asI55370
(lp273
F47.61912951316478
aF-122.34224680128338
asI12237
(lp274
F47.61911294297588
aF-122.33235175620321
asI57077
(lp275
F47.624657636676616
aF-122.35019178948163
asI12290
(lp276
F47.67114997318208
aF-122.3559864602978
asI57913
(lp277
F47.675377017341354
aF-122.31744436725623
asI14677
(lp278
F47.62864406860303
aF-122.3092812729047
asI76193
(lp279
F47.61604950155462
aF-122.33732797964123
asI78781
(lp280
F47.62214054877726
aF-122.34302664704097
asI58186
(lp281
F47.60884288118008
aF-122.32852746676645
asI8610
(lp282
F47.6196605619211
aF-122.3279097046937
asI58445
(lp283
F47.6209588044004
aF-122.33913062303455
asI25041
(lp284
F47.66219250946578
aF-122.31206036882796
asI25042
(lp285
F47.662193728705184
aF-122.31184120164869
asI11670
(lp286
F47.62745873947197
aF-122.30074173393834
asI94677
(lp287
F47.62749792408515
aF-122.33269228437399
asI41721
(lp288
F47.668761438165184
aF-122.38557074835677
asI2089
(lp289
F47.723512745155546
aF-122.31275516058366
asI12765
(lp290
F47.540537546107394
aF-122.39339260004257
asI76197
(lp291
F47.62032565234753
aF-122.34118265010696
asI12769
(lp292
F47.60574628737534
aF-122.33833270869509
asI12770
(lp293
F47.70140743466456
aF-122.32651690646392
asI14678
(lp294
F47.628708477159066
aF-122.30794675376586
asI35238
(lp295
F47.66052378749242
aF-122.31763481077404
asI46730
(lp296
F47.607136440156694
aF-122.31667477810359
asI58449
(lp297
F47.62094024422289
aF-122.33646806600828
asI58450
(lp298
F47.62078411819415
aF-122.33650373921253
asI49649
(lp299
F47.613485691611
aF-122.34292292185589
asI49650
(lp300
F47.613616873393084
aF-122.34275059850415
asI49653
(lp301
F47.614270552223246
aF-122.34421340795735
asI49654
(lp302
F47.61438019757267
aF-122.34406625022108
asI8617
(lp303
F47.566704070564654
aF-122.32133624565901
asI79742
(lp304
F47.61410162873541
aF-122.32778095038572
asI33273
(lp305
F47.650972053308266
aF-122.3499952897575
asI49658
(lp306
F47.61581766721186
aF-122.34649740850963
asI35242
(lp307
F47.661531182567956
aF-122.31743961512343
asI58453
(lp308
F47.620894817423476
aF-122.3336180451077
asI53130
(lp309
F47.61715539368495
aF-122.34280866794884
asI57861
(lp310
F47.62334256609293
aF-122.35603229185509
asI57862
(lp311
F47.623208268445524
aF-122.3560415650125
asI31489
(lp312
F47.60883480031555
aF-122.34452626694426
asI94731
(lp313
F47.66756158941001
aF-122.39715909631832
asI7246
(lp314
F47.60551815457697
aF-122.3307427974211
asI13058
(lp315
F47.544591623700015
aF-122.37242803914293
asI32173
(lp316
F47.61352495035329
aF-122.32346093700465
asI94736
(lp317
F47.667395975962805
aF-122.39874645132284
asI75169
(lp318
F47.615585226665964
aF-122.34250190383366
asI57874
(lp319
F47.62308945108023
aF-122.32979127243338
asI13793
(lp320
F47.60419516633964
aF-122.29633336909325
asI58798
(lp321
F47.60319788446333
aF-122.3362705140886
asI70746
(lp322
F47.61217180995301
aF-122.3423189313155
asI80645
(lp323
F47.625490761964826
aF-122.34955189969513
asI120240
(lp324
F47.637195942794655
aF-122.3401231679864
asI59962
(lp325
F47.61401856666936
aF-122.31878669544466
asI53797
(lp326
F47.61399481701054
aF-122.33257858610841
asI36106
(lp327
F47.60790512407468
aF-122.34060122589534
asI86449
(lp328
F47.66952446500498
aF-122.386144493101
asI59945
(lp329
F47.61997117546257
aF-122.32158697010128
asI57898
(lp330
F47.6588938585093
aF-122.31768523536937
asI36162
(lp331
F47.63886346881864
aF-122.34092311635126
asI57901
(lp332
F47.663999214000604
aF-122.31749508407054
asI57902
(lp333
F47.66402030444028
aF-122.31733252246369
asI7261
(lp334
F47.71676547531982
aF-122.32343144329874
asI54737
(lp335
F47.62369681693602
aF-122.32104278493503
asI12849
(lp336
F47.607546248626846
aF-122.33193612901397
asI10802
(lp337
F47.64222439058732
aF-122.34770534939612
asI24569
(lp338
F47.61469391866107
aF-122.31696680670711
asI59957
(lp339
F47.61413968210786
aF-122.32141638112375
asI59958
(lp340
F47.61400786765762
aF-122.32144668661319
asI82489
(lp341
F47.61408452150573
aF-122.32762887831436
asI82490
(lp342
F47.61396904856208
aF-122.3275196086174
asI37437
(lp343
F47.61302039943624
aF-122.32024972182916
asI37438
(lp344
F47.612886186309815
aF-122.32025835234262
asI89525
(lp345
F47.600943408775905
aF-122.33218761549315
asI31297
(lp346
F47.6101883301194
aF-122.32906872465799
asI7998
(lp347
F47.57498049545059
aF-122.32585826460715
asI76357
(lp348
F47.59708556947726
aF-122.3225750641626
asI31302
(lp349
F47.617535545043886
aF-122.33755686423325
asI7265
(lp350
F47.625850086185565
aF-122.34739478616191
asI12873
(lp351
F47.610700455994
aF-122.3409275242972
asI12874
(lp352
F47.60289135817768
aF-122.3215538834497
asI37186
(lp353
F47.615183614429924
aF-122.32035614769089
asI31309
(lp354
F47.619126499453536
aF-122.33992703680602
asI12878
(lp355
F47.61126224294153
aF-122.33994251441297
asI76194
(lp356
F47.61614953386709
aF-122.33717689782117
asI17614
(lp357
F47.68674586761695
aF-122.3146260265598
asI62033
(lp358
F47.659848456725015
aF-122.31258669597864
asI62034
(lp359
F47.65974145849643
aF-122.3125814254607
asI75785
(lp360
F47.61769676832327
aF-122.34407494384419
asI12885
(lp361
F47.61665382909527
aF-122.33321851496713
asI30094
(lp362
F47.60176876224463
aF-122.32755874065279
asI11782
(lp363
F47.649834572773095
aF-122.33384018423712
asI9158
(lp364
F47.53613060115535
aF-122.2923126660069
asI35417
(lp365
F47.60688101525408
aF-122.33590565257313
asI59994
(lp366
F47.61514566371302
aF-122.32733505232426
asI34306
(lp367
F47.60835776976847
aF-122.32500871069087
asI59997
(lp368
F47.615298355992756
aF-122.32647201114108
asI35422
(lp369
F47.607231187777884
aF-122.3347143701287
asI25701
(lp370
F47.60874134021027
aF-122.33855878463359
asI11717
(lp371
F47.599611924062586
aF-122.32515509138105
asI35429
(lp372
F47.60968102480768
aF-122.3292297070529
asI14950
(lp373
F47.69920916797929
aF-122.37006634223637
asI10165
(lp374
F47.6263084467772
aF-122.35657873739284
asI14953
(lp375
F47.61300718085771
aF-122.31881785887529
asI14954
(lp376
F47.61286699410005
aF-122.31876337158205
asI35437
(lp377
F47.61240666232198
aF-122.32269517374361
asI76398
(lp378
F47.6031030224561
aF-122.32239978882012
asI77218
(lp379
F47.613569623272795
aF-122.34383835398012
asI10869
(lp380
F47.633933260301134
aF-122.34169400904645
asI10870
(lp381
F47.63811620442697
aF-122.31441187726006
asI35945
(lp382
F47.61706416383147
aF-122.34580133380813
asI8242
(lp383
F47.60573702139919
aF-122.32786582211148
asI76409
(lp384
F47.608020334309536
aF-122.32712960889818
asI76410
(lp385
F47.60809534921494
aF-122.32695035256286
asI76413
(lp386
F47.60875479072047
aF-122.32780118537163
asI76414
(lp387
F47.608827405682874
aF-122.32761973347382
asI94847
(lp388
F47.59828456769546
aF-122.32282286931562
asI76417
(lp389
F47.609454633639004
aF-122.32844079703821
asI60182
(lp390
F47.62102995619493
aF-122.32156165875178
asI10886
(lp391
F47.629795420283685
aF-122.35261161789147
asI8614
(lp392
F47.57350885897712
aF-122.32146689800933
asI8841
(lp393
F47.64973309318903
aF-122.40895136909059
asI57994
(lp394
F47.62537125150377
aF-122.34044011651356
asI48450
(lp395
F47.66817440686967
aF-122.38462376744357
asI72333
(lp396
F47.61837758677828
aF-122.35119160649302
asI76430
(lp397
F47.62029437471766
aF-122.33968444617878
asI47213
(lp398
F47.65175339155891
aF-122.31381087955623
asI76433
(lp399
F47.622634504213
aF-122.33984493634175
asI119444
(lp400
F47.5975772638987
aF-122.32281957655837
asI43118
(lp401
F47.596606770249196
aF-122.32571811479617
asI8854
(lp402
F47.5019846219121
aF-122.38377051261497
asI80537
(lp403
F47.6233376348234
aF-122.3547532060532
asI8858
(lp404
F47.654222228567825
aF-122.34013282350247
asI13125
(lp405
F47.65832545695443
aF-122.32627392402858
asI1045
(lp406
F47.60474784799408
aF-122.30639437937683
asI80541
(lp407
F47.62339588993422
aF-122.34853003395146
asI80542
(lp408
F47.62329019821527
aF-122.34862752542227
asI78702
(lp409
F47.62196470457809
aF-122.33776987293112
asI37138
(lp410
F47.61400950050278
aF-122.3200619505239
asI84641
(lp411
F47.65541882443442
aF-122.31390998320131
asI35825
(lp412
F47.61129250108961
aF-122.32769663002912
asI80550
(lp413
F47.62315957809108
aF-122.33911334930454
asI43121
(lp414
F47.596744494816186
aF-122.32438224532089
asI17065
(lp415
F47.66937259577445
aF-122.32419804555325
asI17066
(lp416
F47.66928962288374
aF-122.3207355616031
asI8306
(lp417
F47.65848770557422
aF-122.31983910816463
asI35502
(lp418
F47.610252439105665
aF-122.32515779591415
asI81693
(lp419
F47.62139173766715
aF-122.33050730005851
asI69446
(lp420
F47.61351143923857
aF-122.31671684475117
asI81694
(lp421
F47.62139895403437
aF-122.33033702786086
asI35198
(lp422
F47.623147081982886
aF-122.33648262231644
asI9770
(lp423
F47.6585327435951
aF-122.33134274111822
asI80570
(lp424
F47.65792031623644
aF-122.31771051004273
asI9674
(lp425
F47.56569779455279
aF-122.4070407903565
asI25717
(lp426
F47.61613374558499
aF-122.34936045869713
asI13526
(lp427
F47.61371288259981
aF-122.33738438990908
asI35826
(lp428
F47.61119925103736
aF-122.32761129872756
asI63126
(lp429
F47.65287592584309
aF-122.31722498350825
asI88773
(lp430
F47.600107749917825
aF-122.32566606580144
asI35526
(lp431
F47.61390232556006
aF-122.3365291047194
asI35529
(lp432
F47.61800326241685
aF-122.3315270451491
asI35530
(lp433
F47.61789755841168
aF-122.33135135230742
asI117879
(lp434
F47.65347865237172
aF-122.31738474482466
asI9677
(lp435
F47.57303991946844
aF-122.29552277875717
asI59013
(lp436
F47.68082959510595
aF-122.32498226477406
asI84689
(lp437
F47.65838971609446
aF-122.31373696213132
asI80594
(lp438
F47.674555794978296
aF-122.31728206184954
asI59066
(lp439
F47.601658466955044
aF-122.3295271819984
asI80222
(lp440
F47.61502207044793
aF-122.32824671239298
asI80597
(lp441
F47.67620229946472
aF-122.31744954953388
asI81245
(lp442
F47.626029562988435
aF-122.33336025434068
asI34937
(lp443
F47.62391788903813
aF-122.35679979741137
asI58077
(lp444
F47.606406692882274
aF-122.33703996908925
asI2782
(lp445
F47.63165246156588
aF-122.35258959744668
asI13521
(lp446
F47.61993846255618
aF-122.35976001701748
asI2785
(lp447
F47.634436405040816
aF-122.35325160521958
asI2786
(lp448
F47.63528650119025
aF-122.35324173023851
asI2789
(lp449
F47.63783585684129
aF-122.35310665153759
asI58086
(lp450
F47.610963656179635
aF-122.32580846508509
asI58833
(lp451
F47.621456723082886
aF-122.33857408787284
asI2793
(lp452
F47.64172029526656
aF-122.35342365220103
asI32554
(lp453
F47.60670400280041
aF-122.3265901530461
asI33517
(lp454
F47.622033760234295
aF-122.33232540345381
asI2798
(lp455
F47.6550067843578
aF-122.32677943180994
asI58493
(lp456
F47.60710523994257
aF-122.33768157694078
asI82673
(lp457
F47.61224029088412
aF-122.31883737518402
asI82674
(lp458
F47.61212158300941
aF-122.31900541738577
asI36646
(lp459
F47.67996778161543
aF-122.32564130961248
asI56150
(lp460
F47.614674133266554
aF-122.3222181839599
asI81705
(lp461
F47.601775001832735
aF-122.33110980631866
asI54009
(lp462
F47.61192803445668
aF-122.34976910291272
asI41722
(lp463
F47.66859681991895
aF-122.38543758245112
asI12846
(lp464
F47.60697980944779
aF-122.33297389268799
asI81134
(lp465
F47.62075018431476
aF-122.33105112729251
asI41725
(lp466
F47.66874738574367
aF-122.38890795437982
asI41726
(lp467
F47.66859934810347
aF-122.38890665541199
asI54741
(lp468
F47.62597213900946
aF-122.3214164210315
asI80641
(lp469
F47.62551025792596
aF-122.35477396238673
asI27394
(lp470
F47.60127871028051
aF-122.33017734912012
asI13794
(lp471
F47.604243164060875
aF-122.29539270104951
asI36101
(lp472
F47.60597801769585
aF-122.33908111579933
asI31493
(lp473
F47.610269810920784
aF-122.34696795016474
asI27398
(lp474
F47.60041868902584
aF-122.33022129292182
asI62457
(lp475
F47.67589073174305
aF-122.3165174656445
asI56074
(lp476
F47.621961498072125
aF-122.33912682325001
asI17613
(lp477
F47.68666841089421
aF-122.31562085770261
asI80654
(lp478
F47.62533812336663
aF-122.34179298097796
asI79657
(lp479
F47.60705764519899
aF-122.32842543234487
asI18166
(lp480
F47.70585931475321
aF-122.36849247700161
asI56082
(lp481
F47.6219242410869
aF-122.32980900106978
asI32125
(lp482
F47.622600703125556
aF-122.33595638182518
asI56085
(lp483
F47.6115878803396
aF-122.3211736197984
asI54038
(lp484
F47.603608664133155
aF-122.32217322307453
asI36313
(lp485
F47.68015975776966
aF-122.32468599477303
asI13082
(lp486
F47.62931980541998
aF-122.34630859312225
asI13085
(lp487
F47.631779445419646
aF-122.34609852658468
asI13086
(lp488
F47.6327236337486
aF-122.34586943652596
asI9349
(lp489
F47.63410318070207
aF-122.29986387112038
asI91545
(lp490
F47.62216567553683
aF-122.35737566824236
asI76201
(lp491
F47.62266429229458
aF-122.34117014179442
asI10218
(lp492
F47.625596696966554
aF-122.36675503371582
asI13093
(lp493
F47.571267697112276
aF-122.28200136563669
asI78929
(lp494
F47.61421746086564
aF-122.33406527962916
asI13097
(lp495
F47.604866201239915
aF-122.32181772578103
asI13098
(lp496
F47.605175706131604
aF-122.32104889848875
asI9157
(lp497
F47.53571380772772
aF-122.29125889083028
asI56902
(lp498
F47.60430722926335
aF-122.33700690328894
asI13101
(lp499
F47.61737278487807
aF-122.33560871733377
asI13102
(lp500
F47.617509218028104
aF-122.33546990446735
asI13789
(lp501
F47.60435832459447
aF-122.30052198966987
asI13105
(lp502
F47.607118245187394
aF-122.32455072229442
asI58198
(lp503
F47.61069711393007
aF-122.32407915374998
asI13109
(lp504
F47.610632513260526
aF-122.32796814051495
asI13110
(lp505
F47.61153986849696
aF-122.32860297228218
asI54409
(lp506
F47.618308921279734
aF-122.34027073421734
asI54073
(lp507
F47.62696531691908
aF-122.33225363688065
asI54074
(lp508
F47.626865245941374
aF-122.33232026813558
asI11786
(lp509
F47.654963472069326
aF-122.33377780159827
asI64317
(lp510
F47.66875440812416
aF-122.37964963459476
asI60222
(lp511
F47.61293307869156
aF-122.3258776442681
asI31541
(lp512
F47.60411978889228
aF-122.32125907361078
asI58177
(lp513
F47.60663066580639
aF-122.33417049992724
asI64322
(lp514
F47.66859714366592
aF-122.38697003941866
asI58181
(lp515
F47.608479621864504
aF-122.32970456954533
asI58182
(lp516
F47.60839012281677
aF-122.32961798061547
asI9697
(lp517
F47.52829677801252
aF-122.26649996804346
asI58185
(lp518
F47.608951581185494
aF-122.32862209557936
asI13130
(lp519
F47.6209986762169
aF-122.35608764905405
asI59949
(lp520
F47.614149685141925
aF-122.32586981607565
asI88546
(lp521
F47.5991013354324
aF-122.32573847811184
asI13134
(lp522
F47.620826372693514
aF-122.34564455811534
asI76625
(lp523
F47.613765280496686
aF-122.35312623024043
asI13138
(lp524
F47.620958236814246
aF-122.34043417453935
asI56149
(lp525
F47.61467559008999
aF-122.32202358518248
asI47958
(lp526
F47.60269032668748
aF-122.33271400613754
asI47961
(lp527
F47.60404492534596
aF-122.33425777376974
asI47962
(lp528
F47.60412243087296
aF-122.33403791251806
asI16941
(lp529
F47.65836800508629
aF-122.31259924819243
asI47966
(lp530
F47.60626322386189
aF-122.33601513851964
asI77226
(lp531
F47.615571231324
aF-122.34123329451049
asI123744
(lp532
F47.59841065447205
aF-122.32415720926664
asI35681
(lp533
F47.66786388701008
aF-122.38087265571534
asI35682
(lp534
F47.66791252536173
aF-122.38073282476664
asI70501
(lp535
F47.60711881951717
aF-122.30901721849946
asI80742
(lp536
F47.610453140218745
aF-122.32699069778864
asI58513
(lp537
F47.65753313473006
aF-122.31331290007253
asI80745
(lp538
F47.61151364626856
aF-122.32480954606129
asI2922
(lp539
F47.600447751887366
aF-122.33143882780666
asI58609
(lp540
F47.61370203915975
aF-122.35184128117271
asI31058
(lp541
F47.615401162099175
aF-122.33591854006153
asI35693
(lp542
F47.61914666802036
aF-122.34644101168513
asI11118
(lp543
F47.66609913328188
aF-122.33131912400265
asI69437
(lp544
F47.607708724484084
aF-122.31688539752483
asI58225
(lp545
F47.61732775498424
aF-122.33235229882644
asI13170
(lp546
F47.70050587952967
aF-122.39173675970122
asI64318
(lp547
F47.66858977495483
aF-122.37955206265
asI11126
(lp548
F47.605485671935554
aF-122.32240984404038
asI58473
(lp549
F47.60904154583972
aF-122.33638075669006
asI11129
(lp550
F47.6695967619207
aF-122.33206376254088
asI11130
(lp551
F47.635974329975994
aF-122.31500907517008
asI24042
(lp552
F47.613829017206214
aF-122.34710829456765
asI11134
(lp553
F47.57427028863796
aF-122.3545811934442
asI31893
(lp554
F47.615876383827164
aF-122.34570734999329
asI11137
(lp555
F47.61978650159459
aF-122.34040168547813
asI11138
(lp556
F47.61963610283527
aF-122.3405218443574
asI13189
(lp557
F47.65200556474906
aF-122.32081258220461
asI13190
(lp558
F47.65268236374695
aF-122.32028960922622
asI13121
(lp559
F47.622623658249545
aF-122.33726857179377
asI33673
(lp560
F47.615221352254636
aF-122.33279094353998
asI43914
(lp561
F47.60079833611968
aF-122.3256681321285
asI58681
(lp562
F47.61439627900566
aF-122.34924682910561
asI81126
(lp563
F47.620823685237
aF-122.3430360824913
asI13197
(lp564
F47.671853212298664
aF-122.27562518854438
asI13198
(lp565
F47.61258563188974
aF-122.32425865375652
asI32258
(lp566
F47.60984774974596
aF-122.32064832789155
asI35729
(lp567
F47.61585551883153
aF-122.33301469812892
asI81066
(lp568
F47.61833074931078
aF-122.34618943735958
asI58474
(lp569
F47.608934350197686
aF-122.3362825290123
asI45974
(lp570
F47.624515780644906
aF-122.35864287910846
asI13209
(lp571
F47.61178165265427
aF-122.32656589543308
asI13210
(lp572
F47.658495131019095
aF-122.28775596474793
asI58406
(lp573
F47.6056871075875
aF-122.32325762357232
asI13213
(lp574
F47.651434720385225
aF-122.31351309847949
asI13214
(lp575
F47.65308397241752
aF-122.31339919615273
asI10053
(lp576
F47.71619277735929
aF-122.3373199302273
asI35745
(lp577
F47.62093986697137
aF-122.33776216884235
asI59702
(lp578
F47.611595531610426
aF-122.3195595959969
asI35749
(lp579
F47.620881111283396
aF-122.3323677408982
asI43942
(lp580
F47.59744736121351
aF-122.3269950891047
asI55474
(lp581
F47.6111765776402
aF-122.34508365844871
asI12238
(lp582
F47.62024096080552
aF-122.33180156900983
asI43945
(lp583
F47.59757627881645
aF-122.32200564527547
asI43946
(lp584
F47.59743921431533
aF-122.32201036139419
asI70750
(lp585
F47.61291975880136
aF-122.34359285580625
asI24050
(lp586
F47.61828817947301
aF-122.35466290792928
asI76718
(lp587
F47.62706749910117
aF-122.3416595977643
asI21774
(lp588
F47.56844020882176
aF-122.39411900115076
asI76721
(lp589
F47.62692410061105
aF-122.33007553937391
asI76722
(lp590
F47.62682007982285
aF-122.33005728873411
asI9141
(lp591
F47.54833133337618
aF-122.30118922020725
asI9142
(lp592
F47.547056662426144
aF-122.30080502201933
asI13129
(lp593
F47.664077991184556
aF-122.32608825836786
asI9145
(lp594
F47.5444205914456
aF-122.30008547554024
asI9146
(lp595
F47.543935830050586
aF-122.29984638186055
asI13057
(lp596
F47.69413859007895
aF-122.39912222888728
asI37821
(lp597
F47.65073975616669
aF-122.35083983204649
asI37822
(lp598
F47.65059192709793
aF-122.3507908617372
asI34293
(lp599
F47.603398114425644
aF-122.33714331468458
asI24265
(lp600
F47.62037124530791
aF-122.35812151596306
asI80833
(lp601
F47.60570360800254
aF-122.33633949199971
asI7397
(lp602
F47.629163376902014
aF-122.36309079673401
asI33733
(lp603
F47.60259140895004
aF-122.33199664331742
asI31061
(lp604
F47.61686232276304
aF-122.3387269921052
asI80841
(lp605
F47.61126474662228
aF-122.32303773859763
asI80842
(lp606
F47.61116914326243
aF-122.3229503265597
asI33741
(lp607
F47.61980828095906
aF-122.34695788060878
asI33742
(lp608
F47.61966574012135
aF-122.34696304362245
asI13133
(lp609
F47.62083614823363
aF-122.34685645453844
asI33745
(lp610
F47.61973548114621
aF-122.33104117548757
asI35794
(lp611
F47.60848168298938
aF-122.33737976308802
asI56362
(lp612
F47.61965530931891
aF-122.33616900160075
asI13126
(lp613
F47.65958600165291
aF-122.32625549603264
asI76622
(lp614
F47.60963242392424
aF-122.34549519140697
asI35798
(lp615
F47.60940090835733
aF-122.33516063952251
asI49657
(lp616
F47.615699005621366
aF-122.34662931580115
asI33274
(lp617
F47.6509054162312
aF-122.34979279300249
asI53430
(lp618
F47.615687442709245
aF-122.33833526673459
asI58337
(lp619
F47.613024691871686
aF-122.32556643662105
asI31062
(lp620
F47.6170483223698
aF-122.33867211229865
asI79014
(lp621
F47.60501562126802
aF-122.32356437999778
asI1001
(lp622
F47.70257054663898
aF-122.37671005127514
asI1002
(lp623
F47.590677604612694
aF-122.38276996936548
asI35821
(lp624
F47.61081538490781
aF-122.3288220302409
asI35822
(lp625
F47.61073647225231
aF-122.32873326236147
asI8626
(lp626
F47.63012385725159
aF-122.36899774038991
asI58818
(lp627
F47.61669615176642
aF-122.35396246556589
asI80881
(lp628
F47.612671956975326
aF-122.33838364292824
asI80882
(lp629
F47.612592528330715
aF-122.33820630836018
asI32290
(lp630
F47.66400346096157
aF-122.31413883563832
asI13301
(lp631
F47.61498598685386
aF-122.3501732134757
asI13302
(lp632
F47.61138668401942
aF-122.34208214003857
asI81065
(lp633
F47.61831628223618
aF-122.34645619688669
asI13305
(lp634
F47.66311914950235
aF-122.32344807743931
asI1018
(lp635
F47.610396268033355
aF-122.34133064691505
asI13309
(lp636
F47.614111051506214
aF-122.33882236818513
asI1022
(lp637
F47.51063484467806
aF-122.37157373600428
asI58197
(lp638
F47.61080096656453
aF-122.32416225422809
asI13313
(lp639
F47.61347030299544
aF-122.33965105160524
asI35842
(lp640
F47.656478761530295
aF-122.3131660496378
asI78118
(lp641
F47.61370194011678
aF-122.35084742401543
asI35845
(lp642
F47.662166123533446
aF-122.31320115208639
asI1030
(lp643
F47.508207845251775
aF-122.25791989162462
asI55409
(lp644
F47.601884500699605
aF-122.33003697108668
asI35849
(lp645
F47.663968115309785
aF-122.31317361379956
asI35850
(lp646
F47.6639696514368
aF-122.31300110632728
asI35837
(lp647
F47.654433737492354
aF-122.31339781006265
asI58381
(lp648
F47.62031512566358
aF-122.34644322519196
asI58382
(lp649
F47.620312601110825
aF-122.34613912914888
asI36013
(lp650
F47.62499535436268
aF-122.3541761649654
asI1041
(lp651
F47.668508844407604
aF-122.41009004332642
asI66578
(lp652
F47.600825571962304
aF-122.33064294925288
asI58410
(lp653
F47.60641828646114
aF-122.32391114653956
asI37133
(lp654
F47.61413009797126
aF-122.3232659665801
asI53422
(lp655
F47.6131247833976
aF-122.33464195344231
asI1046
(lp656
F47.50642771515555
aF-122.25471162717838
asI24409
(lp657
F47.61587315325563
aF-122.31827888881466
asI56345
(lp658
F47.61981451917863
aF-122.34565174522521
asI56346
(lp659
F47.61965023065657
aF-122.34570769988336
asI56349
(lp660
F47.61980442339209
aF-122.34299815817181
asI19486
(lp661
F47.55494512309374
aF-122.33164520734888
asI79365
(lp662
F47.61755058400348
aF-122.336684889078
asI79037
(lp663
F47.6197385424007
aF-122.33201290826236
asI56353
(lp664
F47.619802006272856
aF-122.34170609590267
asI56354
(lp665
F47.619640084888424
aF-122.34166096677316
asI24558
(lp666
F47.61099386373546
aF-122.31666154614712
asI56357
(lp667
F47.61977968575315
aF-122.33782832916981
asI56358
(lp668
F47.61962614888836
aF-122.33782561524275
asI55473
(lp669
F47.611505332904485
aF-122.34592103055559
asI35881
(lp670
F47.62634118234338
aF-122.34166642809245
asI35882
(lp671
F47.62619039494368
aF-122.34166566500713
asI53242
(lp672
F47.59709419089556
aF-122.32628367741833
asI58413
(lp673
F47.608486498032605
aF-122.32599167137158
asI35886
(lp674
F47.62564186058953
aF-122.33788752620225
asI36014
(lp675
F47.62499475064353
aF-122.35401395972914
asI59374
(lp676
F47.68054512375926
aF-122.32586408557913
asI80945
(lp677
F47.61130694678142
aF-122.32397401203957
asI35890
(lp678
F47.62591863345355
aF-122.33166834218446
asI31542
(lp679
F47.604025078068794
aF-122.32117724740868
asI66613
(lp680
F47.59758256145676
aF-122.3256880634438
asI80950
(lp681
F47.61467201860633
aF-122.3254203824119
asI32265
(lp682
F47.62255636562189
aF-122.32102062153962
asI80953
(lp683
F47.6158014657542
aF-122.32564568582119
asI80954
(lp684
F47.61579860990828
aF-122.32543075449982
asI13346
(lp685
F47.61500289676114
aF-122.34823653046297
asI66622
(lp686
F47.597427370531605
aF-122.32338507661532
asI8373
(lp687
F47.661128234088785
aF-122.36607574473453
asI24041
(lp688
F47.61370955843893
aF-122.34725736778172
asI35909
(lp689
F47.61214183202818
aF-122.34137468792608
asI11105
(lp690
F47.66700674802409
aF-122.32900846979777
asI94732
(lp691
F47.66738000503652
aF-122.39716917948353
asI70730
(lp692
F47.60483803454224
aF-122.33469239960274
asI47970
(lp693
F47.60981333445241
aF-122.3392249002666
asI58446
(lp694
F47.62079430238943
aF-122.339127913178
asI81421
(lp695
F47.62389408997546
aF-122.3541972505882
asI70737
(lp696
F47.60688869465879
aF-122.33685434317597
asI70738
(lp697
F47.60697468434338
aF-122.33665652956287
asI78933
(lp698
F47.61589469667233
aF-122.33191224817028
asI58454
(lp699
F47.62074958214042
aF-122.33362440319884
asI43193
(lp700
F47.60010212349462
aF-122.33104551075219
asI7257
(lp701
F47.70978827204269
aF-122.32320052011295
asI7258
(lp702
F47.711113542185686
aF-122.3232635059189
asI2926
(lp703
F47.599626079407855
aF-122.33144581005126
asI8378
(lp704
F47.66470786091153
aF-122.3662979840806
asI7262
(lp705
F47.62265783656699
aF-122.34768859146271
asI80741
(lp706
F47.6105936326333
aF-122.3270478480169
asI70753
(lp707
F47.61500180409169
aF-122.34747688682066
asI81105
(lp708
F47.604496977926345
aF-122.32270130574909
asI78934
(lp709
F47.615784173869315
aF-122.3318185350733
asI70757
(lp710
F47.61722753658148
aF-122.35122851013199
asI70758
(lp711
F47.61735533180196
aF-122.35108740422234
asI25705
(lp712
F47.6112759327452
aF-122.3411828263074
asI70762
(lp713
F47.61920356541482
aF-122.35269269567533
asI25709
(lp714
F47.61356030463157
aF-122.34502716246949
asI25710
(lp715
F47.61369827376788
aF-122.34489711766096
asI18621
(lp716
F47.66953263125494
aF-122.38343007777752
asI58641
(lp717
F47.61676587300112
aF-122.3353729976844
asI25713
(lp718
F47.61433066697519
aF-122.34632708211646
asI25714
(lp719
F47.61445147789476
aF-122.34618661817447
asI12869
(lp720
F47.60977295463605
aF-122.32630417680642
asI43198
(lp721
F47.59996645287439
aF-122.32827603007604
asI25718
(lp722
F47.616245416366965
aF-122.34921056436818
asI31593
(lp723
F47.62720667307738
aF-122.34041060643318
asI58490
(lp724
F47.606182961156065
aF-122.33961644699346
asI78122
(lp725
F47.61478183870445
aF-122.35269231426253
asI80746
(lp726
F47.61140639988014
aF-122.32471143526
asI58494
(lp727
F47.60702379644818
aF-122.33761426870774
asI9722
(lp728
F47.55489333187417
aF-122.30439709062261
asI58498
(lp729
F47.60748914632121
aF-122.33646206939198
asI35841
(lp730
F47.65648630238505
aF-122.31334035818134
asI11397
(lp731
F47.66040298865036
aF-122.34858370643069
asI11398
(lp732
F47.661073583520874
aF-122.34856260235534
asI1217
(lp733
F47.55653909038084
aF-122.33407236575462
asI9353
(lp734
F47.63642764771269
aF-122.30415963815958
asI54410
(lp735
F47.61826049853977
aF-122.34007491301156
asI58414
(lp736
F47.60855363742169
aF-122.32583857392669
asI37137
(lp737
F47.61415207880947
aF-122.32006012904574
asI9357
(lp738
F47.63823481671149
aF-122.30800571855696
asI9358
(lp739
F47.638940527109455
aF-122.30952480220041
asI78701
(lp740
F47.62211281699878
aF-122.33778887602796
asI31889
(lp741
F47.614536510145115
aF-122.34745115626953
asI31890
(lp742
F47.61444164200769
aF-122.34729377680627
asI35694
(lp743
F47.619156534752925
aF-122.34616925355483
asI31894
(lp744
F47.61578616726885
aF-122.34555472313613
asI10877
(lp745
F47.592312147545805
aF-122.30744063164127
asI85149
(lp746
F47.67505125929324
aF-122.31805065087596
asI85150
(lp747
F47.67491418859224
aF-122.31805211391075
asI12542
(lp748
F47.50796241983219
aF-122.25614206019344
asI46245
(lp749
F47.608274277588464
aF-122.3396373222409
asI46246
(lp750
F47.60837484615013
aF-122.33948143855628
asI78705
(lp751
F47.62209926122706
aF-122.33513201884561
asI36009
(lp752
F47.62033409992527
aF-122.35425490107335
asI36010
(lp753
F47.620338658455665
aF-122.35401157019972
asI117932
(lp754
F47.653495516303806
aF-122.31761711112321
asI46253
(lp755
F47.61140257220477
aF-122.34336218279283
asI46254
(lp756
F47.61151810447785
aF-122.34321267126737
asI54449
(lp757
F47.61465634994521
aF-122.32457473927019
asI54450
(lp758
F47.61468365247828
aF-122.32435614774073
asI53241
(lp759
F47.597078105988025
aF-122.32645396905542
asI79029
(lp760
F47.619731942509986
aF-122.33362810958917
asI79030
(lp761
F47.61959484185554
aF-122.33361664786202
asI13513
(lp762
F47.61536129224003
aF-122.3519963534934
asI76985
(lp763
F47.61518500900364
aF-122.3466284724785
asI76986
(lp764
F47.61507875829906
aF-122.34644272289599
asI77613
(lp765
F47.605410303556184
aF-122.32997613853256
asI76989
(lp766
F47.61719267139159
aF-122.34404293097421
asI1214
(lp767
F47.569890503657405
aF-122.33433431196498
asI33518
(lp768
F47.62190509960908
aF-122.33237106713833
asI79041
(lp769
F47.61975161308995
aF-122.32979109749009
asI76994
(lp770
F47.61775786218898
aF-122.34300476789915
asI35793
(lp771
F47.6085674370608
aF-122.33746760614696
asI13509
(lp772
F47.613035171212594
aF-122.34807888611417
asI33990
(lp773
F47.6141247011479
aF-122.34083494679416
asI33993
(lp774
F47.61819375602714
aF-122.33584596141972
asI33994
(lp775
F47.61810045458264
aF-122.33564970063242
asI1229
(lp776
F47.643050740952944
aF-122.37491631894645
asI13518
(lp777
F47.60981336468922
aF-122.34274501605725
asI13517
(lp778
F47.618102387627346
aF-122.35633430925023
asI17617
(lp779
F47.68672019679761
aF-122.31158437841509
asI70866
(lp780
F47.598767267590844
aF-122.33145758001659
asI76050
(lp781
F47.61213194397513
aF-122.33374364246102
asI8398
(lp782
F47.681611459197924
aF-122.3659321325373
asI87254
(lp783
F47.668594045861504
aF-122.38262305002812
asI32434
(lp784
F47.6179444091236
aF-122.3477060812099
asI81113
(lp785
F47.61812242120998
aF-122.3368581518627
asI81114
(lp786
F47.61818884111168
aF-122.33660880209223
asI81117
(lp787
F47.623891551969905
aF-122.33723821833487
asI81118
(lp788
F47.62386337099721
aF-122.33701541192076
asI77349
(lp789
F47.617310511289006
aF-122.35215541579683
asI7393
(lp790
F47.62406953675775
aF-122.36329704259094
asI16954
(lp791
F47.65978852437404
aF-122.31718069113273
asI36117
(lp792
F47.61480461314272
aF-122.35105490400514
asI81125
(lp793
F47.62096076886397
aF-122.3430303082095
asI23782
(lp794
F47.637254071672885
aF-122.40601553703763
asI1233
(lp795
F47.718137521373706
aF-122.30057585258432
asI13545
(lp796
F47.68014961253523
aF-122.32275466004697
asI13546
(lp797
F47.64098537166616
aF-122.34244810991952
asI36138
(lp798
F47.61568535976316
aF-122.3377939721154
asI17618
(lp799
F47.68672528044892
aF-122.31054190256567
asI13550
(lp800
F47.680855413900716
aF-122.32232090586956
asI79558
(lp801
F47.604012193091464
aF-122.33770957139058
asI54513
(lp802
F47.612333526967845
aF-122.34567900448738
asI54514
(lp803
F47.61225570682076
aF-122.34555344014274
asI28957
(lp804
F47.616898756334024
aF-122.34670723916406
asI54517
(lp805
F47.61696862966977
aF-122.33968959943931
asI54518
(lp806
F47.61689023467754
aF-122.33955399680494
asI70754
(lp807
F47.615117887664894
aF-122.34731598075314
asI76626
(lp808
F47.61393710240942
aF-122.35301623851342
asI36093
(lp809
F47.60199121982332
aF-122.33563304204517
asI58622
(lp810
F47.61620702359402
aF-122.34829899409284
asI87253
(lp811
F47.66875856094754
aF-122.38264895088315
asI36097
(lp812
F47.60456823160738
aF-122.33777699019464
asI1282
(lp813
F47.54836116504727
aF-122.35715840376315
asI58418
(lp814
F47.61529736648794
aF-122.33199548043186
asI21765
(lp815
F47.56833390497964
aF-122.38214518808412
asI36102
(lp816
F47.60604495192025
aF-122.33891354041558
asI13185
(lp817
F47.610805669495015
aF-122.3321561160293
asI36105
(lp818
F47.607808919777305
aF-122.34074682051534
asI13578
(lp819
F47.64087269551703
aF-122.34419099265787
asI21773
(lp820
F47.568427470895884
aF-122.392782292842
asI3342
(lp821
F47.647515710473556
aF-122.38460315063867
asI53805
(lp822
F47.616726189301524
aF-122.33644763757218
asI32017
(lp823
F47.612443387769474
aF-122.34783610555674
asI32018
(lp824
F47.61235060139066
aF-122.3476975811462
asI51478
(lp825
F47.607919093667675
aF-122.33444531772838
asI16942
(lp826
F47.664935994855995
aF-122.30424287510068
asI83222
(lp827
F47.65041831573812
aF-122.34967209812118
asI87257
(lp828
F47.66875977432153
aF-122.38387385173979
asI52529
(lp829
F47.61758346435615
aF-122.34584433271078
asI32026
(lp830
F47.61501528970172
aF-122.34425707557247
asI83242
(lp831
F47.65138379068463
aF-122.35085668671233
asI10797
(lp832
F47.57117569533578
aF-122.31674769006347
asI87258
(lp833
F47.66859528525337
aF-122.38387420774986
asI8001
(lp834
F47.57163784425039
aF-122.32604039962095
asI11141
(lp835
F47.61976312496938
aF-122.33510682757807
asI58078
(lp836
F47.60630229532659
aF-122.33693505303256
asI54561
(lp837
F47.62525020421218
aF-122.33594304108722
asI54562
(lp838
F47.62523835573256
aF-122.3356998208468
asI43910
(lp839
F47.60080077300347
aF-122.32696870224072
asI9510
(lp840
F47.66076301135569
aF-122.3350412660347
asI53809
(lp841
F47.62386712373345
aF-122.33983523868562
asI68905
(lp842
F47.602112221411474
aF-122.33428238966276
asI81194
(lp843
F47.610316706716134
aF-122.33297250733791
asI58646
(lp844
F47.61800018293469
aF-122.33350723451356
asI53810
(lp845
F47.623871942302145
aF-122.33965677236313
asI68910
(lp846
F47.607362100181106
aF-122.33855515373115
asI60225
(lp847
F47.61304716156026
aF-122.32272028504934
asI52530
(lp848
F47.61769217379742
aF-122.34569558654727
asI24049
(lp849
F47.618092313976845
aF-122.35468237983522
asI32053
(lp850
F47.615803621624096
aF-122.32458536293146
asI32054
(lp851
F47.615821231929644
aF-122.32437474490506
asI43913
(lp852
F47.60093542920095
aF-122.32567765397741
asI79765
(lp853
F47.62465594979679
aF-122.35604183000052
asI68921
(lp854
F47.6160313685701
aF-122.35118313938439
asI81210
(lp855
F47.66049972102397
aF-122.31306056126152
asI68922
(lp856
F47.61615106069975
aF-122.35102833120412
asI58685
(lp857
F47.61572569296377
aF-122.34754003554742
asI58686
(lp858
F47.61564378260056
aF-122.34739821303788
asI88629
(lp859
F47.59835951079974
aF-122.33097861680348
asI48449
(lp860
F47.66819350776597
aF-122.3848673187502
asI23874
(lp861
F47.623218874998486
aF-122.35739975274058
asI88630
(lp862
F47.5982198663089
aF-122.33103074152764
asI11590
(lp863
F47.60367618979758
aF-122.28811871093762
asI46409
(lp864
F47.59737064834809
aF-122.33432547528878
asI11594
(lp865
F47.610442735693724
aF-122.32231994614529
asI11598
(lp866
F47.609513495008066
aF-122.32453441996896
asI33677
(lp867
F47.61771697176688
aF-122.32955899601191
asI54738
(lp868
F47.62368880948269
aF-122.32082772532563
asI54609
(lp869
F47.612503684107594
aF-122.32353317751364
asI53433
(lp870
F47.61689803923298
aF-122.34081430104763
asI81198
(lp871
F47.61268211016012
aF-122.32737199635046
asI31065
(lp872
F47.62148853574175
aF-122.34117661886626
asI79766
(lp873
F47.6245038506016
aF-122.35605717978633
asI59961
(lp874
F47.61416100142115
aF-122.31880508001099
asI53238
(lp875
F47.598770399520774
aF-122.32627709898455
asI81242
(lp876
F47.62564255564986
aF-122.3366687725572
asI70741
(lp877
F47.610576121184764
aF-122.34023751955978
asI57914
(lp878
F47.675389322081855
aF-122.31727794413982
asI81246
(lp879
F47.62588035627469
aF-122.3334799405695
asI23781
(lp880
F47.656951164673735
aF-122.39289018801217
asI81249
(lp881
F47.62602846147463
aF-122.33052796086369
asI8397
(lp882
F47.68049532364783
aF-122.36593414964999
asI76042
(lp883
F47.60786870004781
aF-122.3298420949717
asI7398
(lp884
F47.6300284345496
aF-122.3631697599566
asI120166
(lp885
F47.628801969027506
aF-122.34042140333268
asI56682
(lp886
F47.61146222787029
aF-122.3442789205358
asI56685
(lp887
F47.61486473304085
aF-122.34010944263386
asI56686
(lp888
F47.6147868871991
aF-122.33998390738124
asI86450
(lp889
F47.66937922630656
aF-122.38619149879062
asI56689
(lp890
F47.616146333395356
aF-122.33845140300346
asI19482
(lp891
F47.51970363170133
aF-122.28657275144721
asI36098
(lp892
F47.604642350227124
aF-122.3375921593738
asI81129
(lp893
F47.620954553036526
aF-122.34168615554186
asI46457
(lp894
F47.622703091008106
aF-122.35809951492234
asI32122
(lp895
F47.62026957360884
aF-122.33576050144481
asI27393
(lp896
F47.60127901821539
aF-122.33034758928595
asI81130
(lp897
F47.620809290681564
aF-122.34169734636504
asI32126
(lp898
F47.62261491916826
aF-122.33572918449434
asI45973
(lp899
F47.62466110609409
aF-122.35864984412385
asI35713
(lp900
F47.6034996374935
aF-122.32143551798126
asI32129
(lp901
F47.62386871339167
aF-122.33593804477562
asI32130
(lp902
F47.6238733405716
aF-122.33571091760626
asI35946
(lp903
F47.616988435871434
aF-122.34567305427356
asI88633
(lp904
F47.59841040826966
aF-122.32569692848611
asI81289
(lp905
F47.61694484952609
aF-122.34762532595228
asI81290
(lp906
F47.616858999669965
aF-122.34744012818817
asI120203
(lp907
F47.63492849850799
aF-122.33997802190433
asI76358
(lp908
F47.59708373889268
aF-122.32233188939907
asI54669
(lp909
F47.6166413277239
aF-122.35303646836391
asI120206
(lp910
F47.63580226243353
aF-122.33999156710121
asI13549
(lp911
F47.6280357680405
aF-122.34014157039277
asI81297
(lp912
F47.61280656501046
aF-122.34051486048921
asI77313
(lp913
F47.61177526115944
aF-122.32285408937422
asI30101
(lp914
F47.6170294606399
aF-122.34490759943722
asI30102
(lp915
F47.6171427115625
aF-122.3447665300697
asI51493
(lp916
F47.619063958767285
aF-122.34903954727929
asI46082
(lp917
F47.62324242538983
aF-122.35868143033608
asI11673
(lp918
F47.608905344035406
aF-122.32393114115169
asI91546
(lp919
F47.62206698356753
aF-122.35737649917732
asI35714
(lp920
F47.603557300916236
aF-122.32129760350557
asI56901
(lp921
F47.60439635651353
aF-122.3371097773877
asI77217
(lp922
F47.61366215607913
aF-122.34398259473517
asI75170
(lp923
F47.615710900815074
aF-122.34234489897972
asI88634
(lp924
F47.59829527478601
aF-122.32570336127685
asI59953
(lp925
F47.61415745192126
aF-122.32495665672786
asI77221
(lp926
F47.61500119265289
aF-122.34223440739014
asI77222
(lp927
F47.6149187164335
aF-122.34210408700292
asI34214
(lp928
F47.60580762191635
aF-122.33341761614282
asI77225
(lp929
F47.61566275954762
aF-122.3413788374784
asI60234
(lp930
F47.61284452393497
aF-122.31739405050263
asI25706
(lp931
F47.61140567273297
aF-122.34102038990025
asI58797
(lp932
F47.603128388712754
aF-122.33645957103424
asI34222
(lp933
F47.60766067507107
aF-122.32897220873525
asI58409
(lp934
F47.60636065282367
aF-122.32404909570744
asI54673
(lp935
F47.61796364138344
aF-122.35129464379904
asI58801
(lp936
F47.60528134891426
aF-122.3384341293243
asI58802
(lp937
F47.60533892517974
aF-122.33823892761582
asI81133
(lp938
F47.620887272729995
aF-122.3310457933476
asI13142
(lp939
F47.620929380007304
aF-122.3351149894404
asI58805
(lp940
F47.61045309972026
aF-122.34386153565416
asI58806
(lp941
F47.61053951154042
aF-122.3437046908816
asI1278
(lp942
F47.56101470422976
aF-122.37997461606076
asI58809
(lp943
F47.611648756750604
aF-122.34573096015953
asI58810
(lp944
F47.61161729157415
aF-122.34538208760594
asI56906
(lp945
F47.60449757052038
aF-122.33654836050519
asI81342
(lp946
F47.61765601885698
aF-122.34481092633041
asI9461
(lp947
F47.63543826569388
aF-122.32119937383173
asI58817
(lp948
F47.61659513989409
aF-122.35413043638778
asI54722
(lp949
F47.61210459608156
aF-122.32063958478119
asI65818
(lp950
F47.59994666499348
aF-122.32439983854533
asI58629
(lp951
F47.61060650957198
aF-122.34332622670938
asI54725
(lp952
F47.61467931544291
aF-122.32089936077776
asI11718
(lp953
F47.5996054543534
aF-122.32495245215637
asI8097
(lp954
F47.50601105280653
aF-122.25644067830348
asI54729
(lp955
F47.61585399584257
aF-122.32093007824089
asI54730
(lp956
F47.61585834339262
aF-122.3207071376809
asI58829
(lp957
F47.61911755745301
aF-122.33859759585624
asI54734
(lp958
F47.621528700812945
aF-122.32078532722451
asI77389
(lp959
F47.65896213355433
aF-122.3144280170878
asI58834
(lp960
F47.62145309930801
aF-122.33833892868122
asI77265
(lp961
F47.6191264612686
aF-122.33599288448548
asI77266
(lp962
F47.619120063707626
aF-122.33574964950608
asI1277
(lp963
F47.5204779233731
aF-122.32503060284137
asI31310
(lp964
F47.61912274491895
aF-122.33968380768178
asI36310
(lp965
F47.67943565878694
aF-122.32455850388288
asI78073
(lp966
F47.62369832042572
aF-122.32930191661636
asI69081
(lp967
F47.59962469963442
aF-122.3342878165947
asI69082
(lp968
F47.599624344754275
aF-122.3340770497315
asI120399
(lp969
F47.59758270228517
aF-122.32417223004803
asI69085
(lp970
F47.59874437117692
aF-122.3343112791313
asI69086
(lp971
F47.59872760833436
aF-122.33408836935425
asI43941
(lp972
F47.597584435650674
aF-122.3269947363704
asI79566
(lp973
F47.60534768516861
aF-122.33451735179807
asI69089
(lp974
F47.612554703826255
aF-122.31950292733285
asI69090
(lp975
F47.61255195759287
aF-122.31929557274671
asI69093
(lp976
F47.61351752655336
aF-122.31955024527406
asI13798
(lp977
F47.60453679727197
aF-122.29105857714558
asI36118
(lp978
F47.61489952951537
aF-122.35093210803339
asI9393
(lp979
F47.642578061349916
aF-122.32353426050054
asI54762
(lp980
F47.65568274631798
aF-122.31434357082819
asI54765
(lp981
F47.65755256419242
aF-122.3144750247561
asI54766
(lp982
F47.65756816126467
aF-122.31429198791815
asI58621
(lp983
F47.6162951717544
aF-122.34845429587234
asI13809
(lp984
F47.62681384754405
aF-122.32295481686404
asI51470
(lp985
F47.60504961270635
aF-122.33183550264604
asI120403
(lp986
F47.598290029000005
aF-122.32415753627924
asI36094
(lp987
F47.60200022867873
aF-122.33541591440834
asI11766
(lp988
F47.62463692988115
aF-122.34822556788288
asI10153
(lp989
F47.65491994225991
aF-122.3290067217399
asI9721
(lp990
F47.5558406065453
aF-122.30565545793813
asI79354
(lp991
F47.612786431075925
aF-122.34256616276474
asI32430
(lp992
F47.6174060117136
aF-122.34838096294659
asI2986
(lp993
F47.69714097021483
aF-122.30676227345725
asI79358
(lp994
F47.61346007416448
aF-122.3417001788203
asI13349
(lp995
F47.527278451268884
aF-122.26705720806717
asI34305
(lp996
F47.60842770443706
aF-122.32507271227217
asI77314
(lp997
F47.611836078150965
aF-122.32272379652825
asI79021
(lp998
F47.619809962152694
aF-122.34440287841534
asI9421
(lp999
F47.611074322068724
aF-122.32224767397466
asI36357
(lp1000
F47.60176898665218
aF-122.3275843955465
asI32262
(lp1001
F47.610639584502465
aF-122.3206497426986
asI34490
(lp1002
F47.61804559425635
aF-122.33244147458325
asI1006
(lp1003
F47.69935318845229
aF-122.29538552734307
asI32266
(lp1004
F47.62255515757613
aF-122.32080973000568
asI77317
(lp1005
F47.61466110468826
aF-122.32348160343173
asI69133
(lp1006
F47.61944096988586
aF-122.35812856847163
asI81422
(lp1007
F47.62388381857117
aF-122.35401079546756
asI9462
(lp1008
F47.63594706347763
aF-122.32131588490175
asI36309
(lp1009
F47.679438650410304
aF-122.32470812182896
asI75281
(lp1010
F47.597937855451654
aF-122.32775399116498
asI75282
(lp1011
F47.59793881279475
aF-122.32758780812634
asI30698
(lp1012
F47.6116606827576
aF-122.33483301751463
asI11865
(lp1013
F47.723108035659884
aF-122.32961014427553
asI70865
(lp1014
F47.59877036471684
aF-122.33168859995696
asI69134
(lp1015
F47.61940487856445
aF-122.35798291160441
asI7266
(lp1016
F47.62671881730107
aF-122.34750088481209
asI32289
(lp1017
F47.664004633180355
aF-122.3143052143682
asI9762
(lp1018
F47.54634013414061
aF-122.30942135656458
asI76038
(lp1019
F47.60718832570227
aF-122.32922006888566
asI30701
(lp1020
F47.61334209280129
aF-122.33672396611283
asI56241
(lp1021
F47.61721618714206
aF-122.33021789734607
asI1577
(lp1022
F47.673744229507605
aF-122.31573895950164
asI1578
(lp1023
F47.6745668677281
aF-122.31573900699831
asI81478
(lp1024
F47.60885995372976
aF-122.34146583411822
asI81453
(lp1025
F47.61831049006739
aF-122.35423094493325
asI81454
(lp1026
F47.61826889574763
aF-122.35406910201112
asI35421
(lp1027
F47.607345412926186
aF-122.33481890808787
asI10282
(lp1028
F47.67423233754542
aF-122.35135061203357
asI9702
(lp1029
F47.70049745436272
aF-122.33495706332596
asI37129
(lp1030
F47.614152051620636
aF-122.32646908637761
asI10214
(lp1031
F47.62133182409322
aF-122.36153048960145
asI68549
(lp1032
F47.619833954339526
aF-122.3574172822872
asI65802
(lp1033
F47.59998226655718
aF-122.3348865565535
asI81190
(lp1034
F47.609861308165705
aF-122.33407590649304
asI1601
(lp1035
F47.69899769791103
aF-122.31483019127664
asI1602
(lp1036
F47.699906000235615
aF-122.3148658325554
asI80890
(lp1037
F47.61522576019486
aF-122.33481256010353
asI56246
(lp1038
F47.61160495957925
aF-122.33010736158073
asI77382
(lp1039
F47.61255277145072
aF-122.3198068537971
asI89526
(lp1040
F47.60081754853093
aF-122.33232648562753
asI81481
(lp1041
F47.61226938038588
aF-122.34679293563414
asI81482
(lp1042
F47.61238955896145
aF-122.34666975478623
asI54610
(lp1043
F47.61256215412403
aF-122.32340073804443
asI70734
(lp1044
F47.60555459105932
aF-122.33534782596821
asI77390
(lp1045
F47.65895949276805
aF-122.31424951478738
asI65805
(lp1046
F47.6001112276896
aF-122.33287493687071
asI1213
(lp1047
F47.57155027259819
aF-122.33428762547987
asI58222
(lp1048
F47.614568693373855
aF-122.33566246417345
asI35889
(lp1049
F47.62602825960576
aF-122.33167233805436
asI37134
(lp1050
F47.614000368426346
aF-122.32329307809113
asI81494
(lp1051
F47.62262749848024
aF-122.3383333819632
asI23873
(lp1052
F47.62333948475192
aF-122.35739478699904
asI81497
(lp1053
F47.62621888821592
aF-122.33910980138582
asI11866
(lp1054
F47.53436566993683
aF-122.29494430310798
asI11869
(lp1055
F47.60941799022554
aF-122.3237726815417
asI11870
(lp1056
F47.60869907183361
aF-122.32312547249272
asI14949
(lp1057
F47.61304161106593
aF-122.32130990189822
asI55429
(lp1058
F47.6174188211841
aF-122.35435446004948
asI11873
(lp1059
F47.61015018029341
aF-122.32444208269668
asI11874
(lp1060
F47.61021334623045
aF-122.3242948829339
asI60006
(lp1061
F47.61519485286469
aF-122.31882373557846
asI11878
(lp1062
F47.61459873918349
aF-122.32832119651394
asI36113
(lp1063
F47.614258743248584
aF-122.35013221298914
asI79025
(lp1064
F47.61977636979286
aF-122.33908789969527
asI11882
(lp1065
F47.619089234248065
aF-122.33286288416454
asI9478
(lp1066
F47.6246370048759
aF-122.32083158833225
asI28946
(lp1067
F47.602410885220976
aF-122.32942696443945
asI80829
(lp1068
F47.60482919180865
aF-122.33844059247251
asI81685
(lp1069
F47.61782454310966
aF-122.33042468255898
asI13353
(lp1070
F47.61367660703584
aF-122.34995178153414
asI9149
(lp1071
F47.54237848285966
aF-122.2993800030415
asI35433
(lp1072
F47.61013569015316
aF-122.32815041854633
asI71290
(lp1073
F47.669833650811114
aF-122.38463706413606
asI66614
(lp1074
F47.597445487230296
aF-122.32568856439464
asI58226
(lp1075
F47.61724009804955
aF-122.33220712967528
asI60009
(lp1076
F47.615352220974756
aF-122.31752849683998
asI65813
(lp1077
F47.60010702828548
aF-122.32697153683489
asI43905
(lp1078
F47.60095634898053
aF-122.33348246842831
asI1010
(lp1079
F47.51007555168498
aF-122.24374764863809
asI48770
(lp1080
F47.66909241333036
aF-122.38743204077764
asI11785
(lp1081
F47.653724781426796
aF-122.333899488892
asI46725
(lp1082
F47.606540821909334
aF-122.3168857702149
asI59014
(lp1083
F47.68087064029163
aF-122.32484934368739
asI79026
(lp1084
F47.619633822378304
aF-122.33909112143637
asI46729
(lp1085
F47.60710510143299
aF-122.31688558769721
asI27402
(lp1086
F47.599425156260125
aF-122.33021365194787
asI36493
(lp1087
F47.608086263249014
aF-122.30958884718768
asI36494
(lp1088
F47.60796582714758
aF-122.3096383633733
asI31494
(lp1089
F47.61040020005936
aF-122.34680045798834
asI130708
(lp1090
F47.660550911338895
aF-122.31651306183866
asI35438
(lp1091
F47.61230787867393
aF-122.32257705958673
asI81477
(lp1092
F47.60878625694967
aF-122.34164153172648
asI65817
(lp1093
F47.600105673950154
aF-122.32440125886852
asI76717
(lp1094
F47.627204571655625
aF-122.34165854201538
asI79022
(lp1095
F47.619645571177344
aF-122.34443042393325
asI63130
(lp1096
F47.65592373640983
aF-122.31268351265342
asI80186
(lp1097
F47.61364732514522
aF-122.32827201450519
asI1034
(lp1098
F47.621313764896136
aF-122.28331165285924
asI76058
(lp1099
F47.61769658859774
aF-122.3417275323743
asI24222
(lp1100
F47.59131284154333
aF-122.33404505255535
asI80837
(lp1101
F47.60804144008178
aF-122.3308139037473
asI59041
(lp1102
F47.62369625348585
aF-122.3305206138012
asI69282
(lp1103
F47.613516497735475
aF-122.31800603169745
asI33734
(lp1104
F47.60249628765635
aF-122.33190037129214
asI59046
(lp1105
F47.62641690061415
aF-122.33075080878767
asI54954
(lp1106
F47.61673547253527
aF-122.34924775071394
asI24266
(lp1107
F47.62036258672525
aF-122.35797559989774
asI32425
(lp1108
F47.615537533044986
aF-122.3511087099009
asI32426
(lp1109
F47.61541688079103
aF-122.35096315392421
asI32429
(lp1110
F47.6175044789356
aF-122.34854446900499
asI46766
(lp1111
F47.66168811071971
aF-122.31531680374144
asI36125
(lp1112
F47.61733474178912
aF-122.35538416061775
asI35750
(lp1113
F47.62075515437802
aF-122.33231235863687
asI32177
(lp1114
F47.615819664125496
aF-122.32352842098538
asI59058
(lp1115
F47.601655544495685
aF-122.33343082831439
asI36126
(lp1116
F47.61746222504803
aF-122.35527339556157
asI59062
(lp1117
F47.60165660738049
aF-122.33240273789923
asI9354
(lp1118
F47.63723346180859
aF-122.30563577749987
asI57017
(lp1119
F47.597073320360394
aF-122.32514482691289
asI69306
(lp1120
F47.66170011671584
aF-122.31647716093482
asI12537
(lp1121
F47.51128414923904
aF-122.26102982053641
asI62458
(lp1122
F47.67575354812949
aF-122.31650582790975
asI11018
(lp1123
F47.69143818561684
aF-122.34017804145626
asI76405
(lp1124
F47.60730393386633
aF-122.3264692247575
asI58501
(lp1125
F47.60897621788715
aF-122.3332797753797
asI9673
(lp1126
F47.56654748844328
aF-122.40760830349085
asI51477
(lp1127
F47.60781480819139
aF-122.33464066647582
asI34501
(lp1128
F47.620259407382065
aF-122.33308457803987
asI34502
(lp1129
F47.6202585832228
aF-122.33287777557189
asI81185
(lp1130
F47.60754095332742
aF-122.33994099312244
asI34505
(lp1131
F47.62139739094226
aF-122.33309118542519
asI54986
(lp1132
F47.6179975608469
aF-122.34929581058879
asI9474
(lp1133
F47.62050766021941
aF-122.32077304819211
asI78114
(lp1134
F47.60907525758931
aF-122.34335306045529
asI32462
(lp1135
F47.60275259748626
aF-122.33364026115274
asI36813
(lp1136
F47.60623320400833
aF-122.30962130315282
asI79574
(lp1137
F47.607181210764374
aF-122.3300955683905
asI79570
(lp1138
F47.606273504264394
aF-122.33230366291289
asI9469
(lp1139
F47.64626831056936
aF-122.32079375318767
asI34517
(lp1140
F47.626340577671584
aF-122.33266684435492
asI32470
(lp1141
F47.606002561615355
aF-122.32592436129934
asI10873
(lp1142
F47.54173667222318
aF-122.38547722235518
asI12538
(lp1143
F47.62316915084755
aF-122.34167851940168
asI79578
(lp1144
F47.60904037362505
aF-122.32566551580439
asI1013
(lp1145
F47.612175526643384
aF-122.34466292896758
asI10874
(lp1146
F47.52191370976649
aF-122.3460122441705
asI58502
(lp1147
F47.60887009699388
aF-122.3331635823832
asI9509
(lp1148
F47.659724108137574
aF-122.33495303480538
asI69277
(lp1149
F47.61259197115541
aF-122.31820871902856
asI9394
(lp1150
F47.64326347865031
aF-122.32343782091982
asI33338
(lp1151
F47.65102832652846
aF-122.35055557701358
asI53542
(lp1152
F47.61360676832426
aF-122.33353011384872
asI94421
(lp1153
F47.60834819221698
aF-122.34234071940097
asI1218
(lp1154
F47.51928124448335
aF-122.34792941877917
asI32489
(lp1155
F47.61740396976251
aF-122.35035404558033
asI32490
(lp1156
F47.617301891317545
aF-122.35016289722446
asI33746
(lp1157
F47.619598284733655
aF-122.33109105048494
asI77550
(lp1158
F47.60366738200166
aF-122.33146965594128
asI40573
(lp1159
F47.65616757420833
aF-122.31825463823931
asI80598
(lp1160
F47.67622118181622
aF-122.31727525705568
asI9470
(lp1161
F47.71824162119391
aF-122.35626661568554
asI55026
(lp1162
F47.607181613633365
aF-122.32544002594284
asI66618
(lp1163
F47.59743829698135
aF-122.32471647350418
asI42961
(lp1164
F47.59928019733397
aF-122.32443260903011
asI77557
(lp1165
F47.606557845312416
aF-122.32488129566961
asI77558
(lp1166
F47.606469591373404
aF-122.32478401984913
asI36137
(lp1167
F47.61585754273266
aF-122.3381160975612
asI84690
(lp1168
F47.65825273561582
aF-122.31374660663124
asI77561
(lp1169
F47.60749081499071
aF-122.32263396866725
asI77562
(lp1170
F47.60739466986132
aF-122.32255557248439
asI52522
(lp1171
F47.61341347172626
aF-122.33844001556476
asI72330
(lp1172
F47.61747411627043
aF-122.34929965076654
asI74026
(lp1173
F47.613506484669685
aF-122.34061135206497
asI69278
(lp1174
F47.61260630311028
aF-122.31800476443138
asI35797
(lp1175
F47.609506710599234
aF-122.33526219778686
asI21766
(lp1176
F47.56840701547786
aF-122.38346575396852
asI77569
(lp1177
F47.615424969713
aF-122.35290182372827
asI77570
(lp1178
F47.61532287264404
aF-122.35273224681632
asI123942
(lp1179
F47.613140980775206
aF-122.33179780657686
asI77573
(lp1180
F47.61606995363134
aF-122.35206771774737
asI77574
(lp1181
F47.615976897852704
aF-122.35191337588036
asI48769
(lp1182
F47.66910565271492
aF-122.38771634131888
asI34294
(lp1183
F47.603300231760926
aF-122.33705365898668
asI31498
(lp1184
F47.61117107352099
aF-122.3480942499317
asI11106
(lp1185
F47.66772886692737
aF-122.32948244563727
asI9150
(lp1186
F47.54186297585129
aF-122.29931246065078
asI36141
(lp1187
F47.617079178623335
aF-122.33837520892959
asI12949
(lp1188
F47.72551058312297
aF-122.34224447936245
asI74030
(lp1189
F47.614280032776804
aF-122.34189516668323
asI81686
(lp1190
F47.61795453297702
aF-122.3302564883188
asI25702
(lp1191
F47.608816807186415
aF-122.33833227056469
asI59166
(lp1192
F47.6079930805118
aF-122.32002768465654
asI8837
(lp1193
F47.67121427830272
aF-122.275110459115
asI24270
(lp1194
F47.623919149423244
aF-122.35793894824442
asI79649
(lp1195
F47.60474615246136
aF-122.33392184825061
asI32546
(lp1196
F47.60345477056072
aF-122.33433522179992
asI79653
(lp1197
F47.60613260338752
aF-122.33060636214958
asI32550
(lp1198
F47.60391815155907
aF-122.33321955044678
asI2925
(lp1199
F47.51100001857807
aF-122.37940167497618
asI77609
(lp1200
F47.60447614394971
aF-122.33220928428794
asI77610
(lp1201
F47.60437894304644
aF-122.33211799705326
asI77122
(lp1202
F47.61635446725542
aF-122.34254593811974
asI74034
(lp1203
F47.61648111781991
aF-122.34561889417435
asI32558
(lp1204
F47.60811138496695
aF-122.32320087791453
asI60005
(lp1205
F47.615345325765546
aF-122.31886852858193
asI54754
(lp1206
F47.61188095980518
aF-122.31980299011676
asI77618
(lp1207
F47.60626270431951
aF-122.32765299723043
asI12541
(lp1208
F47.62326710659672
aF-122.33778176068523
asI7989
(lp1209
F47.60961882938715
aF-122.3331722279091
asI7990
(lp1210
F47.609687458090725
aF-122.33302531271342
asI72329
(lp1211
F47.617355470188855
aF-122.34943159067416
asI79674
(lp1212
F47.59874797219578
aF-122.32498811145524
asI51481
(lp1213
F47.60967780081037
aF-122.33633596047085
asI79677
(lp1214
F47.597903916645905
aF-122.32515367330929
asI79678
(lp1215
F47.59790358508806
aF-122.32497533813884
asI58677
(lp1216
F47.613130154106386
aF-122.35088658953958
asI33005
(lp1217
F47.62021913696287
aF-122.32926393286127
asI69441
(lp1218
F47.61219679055567
aF-122.31690313090687
asI69442
(lp1219
F47.6122231908169
aF-122.31666701854749
asI69445
(lp1220
F47.613514624696556
aF-122.31698919324955
asI10054
(lp1221
F47.71835109764603
aF-122.33791698579466
asI69485
(lp1222
F47.65655642892352
aF-122.31563165871316
asI74033
(lp1223
F47.61633159001346
aF-122.34574785823628
asI9473
(lp1224
F47.62050881691097
aF-122.32098798620841
asI76429
(lp1225
F47.620295041770916
aF-122.33986285610777
asI58574
(lp1226
F47.625656676003885
aF-122.33542699411686
asI2790
(lp1227
F47.63868588500975
aF-122.35309677116867
asI1017
(lp1228
F47.659844395652414
aF-122.28280031038301
asI46726
(lp1229
F47.6065380712324
aF-122.31667497556123
asI24405
(lp1230
F47.61468863232402
aF-122.31826394814694
asI24406
(lp1231
F47.61468880050526
aF-122.31805311020315
asI12601
(lp1232
F47.676915599917095
aF-122.31746344316497
asI9678
(lp1233
F47.57207571237647
aF-122.29490631989546
asI79033
(lp1234
F47.619737065842
aF-122.33257277593634
asI33674
(lp1235
F47.61512486086265
aF-122.33265178250544
asI60230
(lp1236
F47.612875778861984
aF-122.31965689078726
asI58682
(lp1237
F47.614322515507475
aF-122.34911601413687
asI10213
(lp1238
F47.62079216268346
aF-122.36096189004195
asI1222
(lp1239
F47.55230926749027
aF-122.33434911073392
asI24417
(lp1240
F47.61813721865161
aF-122.3183150782865
asI31314
(lp1241
F47.621459485763005
aF-122.33967537271997
asI43906
(lp1242
F47.60081931810383
aF-122.33351818237489
asI34661
(lp1243
F47.61300513166923
aF-122.33678128783882
asI57190
(lp1244
F47.60734462891639
aF-122.32168833599059
asI81209
(lp1245
F47.66050586424285
aF-122.31323086139045
asI57194
(lp1246
F47.61728148849772
aF-122.33111946803903
asI13293
(lp1247
F47.69653570444868
aF-122.4009740173782
asI57197
(lp1248
F47.62371396157281
aF-122.3331088742515
asI57198
(lp1249
F47.62370632227089
aF-122.33289796225336
asI37181
(lp1250
F47.61532114620692
aF-122.32146767716159
asI76621
(lp1251
F47.60954489721772
aF-122.3457298949125
asI69489
(lp1252
F47.6640135513195
aF-122.31535216351091
asI57202
(lp1253
F47.62554339247053
aF-122.33246436840997
asI57201
(lp1254
F47.62552645356412
aF-122.33266709423225
asI10801
(lp1255
F47.64222769156038
aF-122.34871754864491
asI77118
(lp1256
F47.61432014861337
aF-122.34517232733434
asI8005
(lp1257
F47.56905591782242
aF-122.32687326537342
asI79034
(lp1258
F47.61959440837359
aF-122.33261027488187
asI24441
(lp1259
F47.65661606095254
aF-122.31677663454929
asI77261
(lp1260
F47.61812377501522
aF-122.33485267407612
asI74029
(lp1261
F47.61415144082035
aF-122.34205339459909
asI13297
(lp1262
F47.638179317939134
aF-122.40314272262877
asI79741
(lp1263
F47.61473559159286
aF-122.32799370460522
asI1281
(lp1264
F47.66154046696478
aF-122.35788474102618
asI63125
(lp1265
F47.65297644099408
aF-122.31709225682116
asI24449
(lp1266
F47.66055284633327
aF-122.31667535530937
asI76102
(lp1267
F47.599580648458776
aF-122.32363501145952
asI12950
(lp1268
F47.72958120463653
aF-122.34229009188154
asI53126
(lp1269
F47.616367485298845
aF-122.34147666007662
asI37185
(lp1270
F47.61533441676215
aF-122.32035445081456
asI10157
(lp1271
F47.65969032897172
aF-122.32894004700368
asI76034
(lp1272
F47.605008919074876
aF-122.32723072106461
asI53133
(lp1273
F47.6191588461362
aF-122.34514821608612
asI53134
(lp1274
F47.619165781101856
aF-122.3448643898821
asI1005
(lp1275
F47.54509648956889
aF-122.36111954213766
asI53137
(lp1276
F47.62031534085739
aF-122.34513698696205
asI53138
(lp1277
F47.620314080496556
aF-122.34484503806752
asI16953
(lp1278
F47.66492417945815
aF-122.28414214054317
asI30702
(lp1279
F47.61340848979168
aF-122.33655818417729
asI71574
(lp1280
F47.669832044487066
aF-122.38746553837483
asI12953
(lp1281
F47.733326720863715
aF-122.34243600731794
asI77262
(lp1282
F47.61829609542839
aF-122.33485330074677
asI12954
(lp1283
F47.64832317999812
aF-122.34269678048136
asI77125
(lp1284
F47.617096283024
aF-122.34181230251873
asI53545
(lp1285
F47.62582785786023
aF-122.34115356646866
asI8098
(lp1286
F47.505153732248445
aF-122.2557148957321
asI58645
(lp1287
F47.61809403213204
aF-122.33366594214013
asI8101
(lp1288
F47.576842534223864
aF-122.4119661379124
asI8102
(lp1289
F47.57502304366622
aF-122.4121246680564
asI1009
(lp1290
F47.60932196807849
aF-122.34059567489825
asI79785
(lp1291
F47.62431963108455
aF-122.33239873727021
asI79786
(lp1292
F47.624210020425096
aF-122.33237991789878
asI13298
(lp1293
F47.63882037422652
aF-122.40246840088116
asI79790
(lp1294
F47.62423317782766
aF-122.32980981685255
asI12957
(lp1295
F47.65162102186143
aF-122.34273640349332
asI37177
(lp1296
F47.61530498582062
aF-122.323918800658
asI10161
(lp1297
F47.617920602380494
aF-122.32931790282692
asI65806
(lp1298
F47.599974153249946
aF-122.33287530008278
asI1014
(lp1299
F47.55886677650828
aF-122.33409966479132
asI59038
(lp1300
F47.622546341203055
aF-122.33033859727075
asI77129
(lp1301
F47.617736075346166
aF-122.34098431093008
asI28962
(lp1302
F47.61814591972197
aF-122.34846587270238
asI46410
(lp1303
F47.597365098796686
aF-122.33405797755586
asI53237
(lp1304
F47.59877207778581
aF-122.32644732544537
asI32049
(lp1305
F47.61353904659474
aF-122.32450367565488
asI80946
(lp1306
F47.611375048125765
aF-122.32382655627725
asI9477
(lp1307
F47.65611024084445
aF-122.31432827727176
asI60010
(lp1308
F47.61520438101887
aF-122.3174998632957
asI80545
(lp1309
F47.6232851265796
aF-122.34042506817423
asI80878
(lp1310
F47.6097839241979
aF-122.34189905928613
asI1021
(lp1311
F47.511636847108385
aF-122.37102358102126
asI36114
(lp1312
F47.61435993702524
aF-122.35002002770332
asI59042
(lp1313
F47.62369825752715
aF-122.3303543690648
asI36814
(lp1314
F47.60611795085579
aF-122.30959607787686
asI11770
(lp1315
F47.62448371939721
aF-122.3534720294508
asI42962
(lp1316
F47.59910747736501
aF-122.32442919332486
asI36142
(lp1317
F47.61708156861984
aF-122.33799294588655
asI58442
(lp1318
F47.62082175256546
aF-122.34438117191256
asI54606
(lp1319
F47.61039901020918
aF-122.32142650352941
asI80889
(lp1320
F47.61533707264666
aF-122.33492711656372
asI54733
(lp1321
F47.62152986967995
aF-122.3210002692888
asI10202
(lp1322
F47.61180251760982
aF-122.3476566912652
asI34301
(lp1323
F47.60388843293441
aF-122.33597231676761
asI12282
(lp1324
F47.61918027645434
aF-122.35667050425346
asI3082
(lp1325
F47.50338852387248
aF-122.3809342579068
asI59045
(lp1326
F47.626414875331044
aF-122.3309332842118
asI27277
(lp1327
F47.61500973126377
aF-122.34549499678032
asI10209
(lp1328
F47.61581391519282
aF-122.3544343525387
asI10210
(lp1329
F47.586361550023064
aF-122.3804712576968
asI58514
(lp1330
F47.65753656809485
aF-122.31314235836288
asI8870
(lp1331
F47.689620860726954
aF-122.33917987508183
asI24413
(lp1332
F47.61696889143026
aF-122.31829651460126
asI120105
(lp1333
F47.62884878868636
aF-122.32939534349322
asI34506
(lp1334
F47.62139794436406
aF-122.3328843863454
asI30697
(lp1335
F47.611606865253606
aF-122.33500784152321
asI24554
(lp1336
F47.608633117295746
aF-122.31667454002692
asI14674
(lp1337
F47.61403055673363
aF-122.32403006689401
asI10222
(lp1338
F47.63179022120568
aF-122.37527935835934
asI80893
(lp1339
F47.61598472283913
aF-122.33408928077948
asI30705
(lp1340
F47.61812459233196
aF-122.3448164744764
asI30706
(lp1341
F47.618238873269
aF-122.34464020147706
asI3341
(lp1342
F47.64566573610759
aF-122.38470056777577
asI35838
(lp1343
F47.6543768088712
aF-122.31321251851479
asI81493
(lp1344
F47.622628499748714
aF-122.33860506351448
asI80553
(lp1345
F47.62317541717569
aF-122.33233929042339
asI75769
(lp1346
F47.60591025465469
aF-122.32978967642134
asI24570
(lp1347
F47.61468609804382
aF-122.31672340562986
asI52521
(lp1348
F47.61328927736609
aF-122.33858720163298
asI35434
(lp1349
F47.61002899429621
aF-122.32804328938995
asI80554
(lp1350
F47.623065741700884
aF-122.33234468664057
asI12286
(lp1351
F47.55524227418465
aF-122.36351359359506
asI55637
(lp1352
F47.62143964994382
aF-122.33443332790594
as.