(dp0
I75777
(lp1
F-122.33212122518056
aF47.60846214620085
aF-122.33266733737882
aF47.60906908544179
asI75778
(lp2
F-122.3319688450897
aF47.60852484831619
aF-122.3325044538794
aF47.60912011645106
asI57898
(lp3
F-122.31769776214662
aF47.65841485415814
aF-122.31767270859211
aF47.659372862860465
asI4438
(lp4
F-122.3608532401907
aF47.66295222474853
aF-122.36085399612533
aF47.663153989256074
asI57350
(lp5
F-122.33278067428263
aF47.6016659157427
aF-122.33278335506911
aF47.600919700960915
asI12289
(lp6
F-122.35681414375948
aF47.62465160953801
aF-122.35680858783087
aF47.62539443863736
asI43121
(lp7
F-122.32498022642862
aF47.596745486197946
aF-122.32378426421317
aF47.596743503434425
asI57353
(lp8
F-122.33297178530846
aF47.59914561523255
aF-122.33297474217547
aF47.598306242769915
asI75786
(lp9
F-122.34365331297268
aF47.61765127051839
aF-122.34437391142316
aF47.618077659777995
asI8306
(lp10
F-122.3198435548762
aF47.657553233803796
aF-122.31983466145306
aF47.65942217734464
asI31302
(lp11
F-122.33703846364908
aF47.6172414961899
aF-122.3380752648174
aF47.61782959389787
asI35842
(lp12
F-122.31317198476142
aF47.65625249649032
aF-122.31316011451416
aF47.65670502657028
asI79886
(lp13
F-122.32595870728287
aF47.61200237111165
aF-122.3267878935989
aF47.61294076861229
asI77266
(lp14
F-122.33575401713904
aF47.61859459660784
aF-122.33574528187313
aF47.619645530807404
asI13298
(lp15
F-122.4026327374022
aF47.6387024788104
aF-122.40230406436012
aF47.63893826964264
asI46766
(lp16
F-122.31532710385747
aF47.661351462361765
aF-122.31530650362542
aF47.66202475907766
asI34838
(lp17
F-122.33655065705496
aF47.61019864691265
aF-122.33560268479941
aF47.6105950107492
asI55641
(lp18
F-122.33443678211036
aF47.62208429002494
aF-122.33444131399789
aF47.62313747552654
asI34841
(lp19
F-122.33557513668731
aF47.61075689606603
aF-122.33462700969119
aF47.61115444392101
asI10222
(lp20
F-122.37484653807132
aF47.63144919815866
aF-122.37571217864736
aF47.6321312442527
asI32122
(lp21
F-122.33576481424053
aF47.61973593026164
aF-122.33575618864909
aF47.620803216956034
asI11594
(lp22
F-122.32279307374866
aF47.61024484025536
aF-122.3218468185419
aF47.61064063113209
asI31066
(lp23
F-122.34096651166018
aF47.62093816785821
aF-122.34095695961305
aF47.62203171998964
asI57349
(lp24
F-122.33296712927654
aF47.60166622209224
aF-122.33296980738989
aF47.60092000730606
asI54762
(lp25
F-122.31435037599181
aF47.655423811146015
aF-122.31433676566456
aF47.65594168148994
asI34850
(lp26
F-122.33417938699965
aF47.61257711124527
aF-122.333165831066
aF47.613000427959655
asI80881
(lp27
F-122.3387426473717
aF47.61239426896853
aF-122.33802463848477
aF47.61294964498212
asI2085
(lp28
F-122.31244439778308
aF47.71585506142345
aF-122.31250143758773
aF47.71753825148353
asI10278
(lp29
F-122.3512138578066
aF47.64986406029165
aF-122.35120960698666
aF47.6506742651327
asI76994
(lp30
F-122.34336158896339
aF47.617482145619
aF-122.3426479468349
aF47.618033578758954
asI10281
(lp31
F-122.35146334807929
aF47.67320069630758
aF-122.35145903346988
aF47.67383912449302
asI2090
(lp32
F-122.31257539332937
aF47.72405969086137
aF-122.31257416059735
aF47.72437643189395
asI4434
(lp33
F-122.3608906122659
aF47.65418043658693
aF-122.36088383532615
aF47.65490001555549
asI43053
(lp34
F-122.33408987272527
aF47.598360097516924
aF-122.33326524419965
aF47.5983588230339
asI43054
(lp35
F-122.33407820780512
aF47.59822300481098
aF-122.33333038469692
aF47.59822184930438
asI8541
(lp36
F-122.3183667376172
aF47.66133925091139
aF-122.31834542923292
aF47.66308592042668
asI75153
(lp37
F-122.331920758372
aF47.606572136598
aF-122.332482432351
aF47.60718575486178
asI43057
(lp38
F-122.32758551781534
aF47.59841331655756
aF-122.326444600869
aF47.59841151882454
asI1229
(lp39
F-122.37491008493856
aF47.641367254231284
aF-122.37492255295433
aF47.64473422767461
asI6197
(lp40
F-122.32541667345205
aF47.72904255550291
aF-122.32537492439623
aF47.72917912591232
asI6198
(lp41
F-122.32534022704674
aF47.72941754087318
aF-122.32512622084556
aF47.72964600810745
asI35849
(lp42
F-122.3131861358949
aF47.663147115889316
aF-122.31316109170425
aF47.66478911473026
asI8249
(lp43
F-122.36652454390092
aF47.62964388778472
aF-122.36652340265317
aF47.63043471673131
asI57354
(lp44
F-122.33278533951041
aF47.599145314679575
aF-122.33278829938385
aF47.598305942221785
asI14398
(lp45
F-122.31929675108994
aF47.61170186706356
aF-122.31828122382717
aF47.612125011023025
asI8377
(lp46
F-122.3663008164569
aF47.6636870555064
aF-122.36629897649523
aF47.66434259496325
asI80541
(lp47
F-122.34875538768367
aF47.623463774024536
aF-122.34830468021926
aF47.62332800584391
asI80882
(lp48
F-122.33857329106375
aF47.61230867013092
aF-122.33783932565663
aF47.61287638653051
asI34882
(lp49
F-122.33158250212459
aF47.62087218837719
aF-122.33158932336904
aF47.62191107923983
asI34885
(lp50
F-122.33181305740487
aF47.622022542271274
aF-122.33181946706449
aF47.62306458753802
asI41030
(lp51
F-122.38481575332541
aF47.67010647426152
aF-122.38747004002202
aF47.67011026568186
asI55369
(lp52
F-122.34255139981919
aF47.61860540706188
aF-122.34254225772246
aF47.61966009638742
asI34890
(lp53
F-122.33164057985371
aF47.624313206962604
aF-122.33164302852698
aF47.624716908923524
asI58446
(lp54
F-122.33968250655262
aF47.62079636502223
aF-122.33857331980337
aF47.62079223975663
asI55373
(lp55
F-122.34255341038595
aF47.61977772778824
aF-122.34254439057054
aF47.62083428476914
asI55374
(lp56
F-122.34222905589318
aF47.61977372413998
aF-122.34222002949193
aF47.62083028109522
asI58381
(lp57
F-122.34644759429108
aF47.619789902141655
aF-122.34643885609283
aF47.6208403491855
asI55377
(lp58
F-122.34252304615613
aF47.62327224790132
aF-122.34251388473648
aF47.62431389113376
asI55378
(lp59
F-122.34219853862653
aF47.6232832463568
aF-122.34218751781529
aF47.62453540529465
asI57017
(lp60
F-122.32514332646994
aF47.59745575697899
aF-122.32514632735582
aF47.59669088374181
asI75865
(lp61
F-122.32644922532339
aF47.598295236191504
aF-122.32645200102588
aF47.597574042420234
asI75866
(lp62
F-122.32627899481614
aF47.59829493628876
aF-122.32628177287712
aF47.597573742521654
asI37134
(lp63
F-122.32336157706747
aF47.61400687057021
aF-122.32322457911478
aF47.61399386628248
asI37821
(lp64
F-122.3512250730703
aF47.65079784156879
aF-122.35045459102268
aF47.6506816707646
asI57901
(lp65
F-122.31750420925353
aF47.66315371570112
aF-122.31748595888754
aF47.66484471230009
asI82014
(lp66
F-122.32079760563373
aF47.62194361113321
aF-122.31992885440731
aF47.62193883502454
asI34510
(lp67
F-122.33287993513353
aF47.62202301051025
aF-122.3328860155553
aF47.62306164550343
asI56357
(lp68
F-122.33834546357649
aF47.61978172795084
aF-122.33731119476315
aF47.619777643555466
asI77610
(lp69
F-122.33258711330636
aF47.60418267156693
aF-122.33164888080016
aF47.60457521452596
asI8301
(lp70
F-122.34265945720168
aF47.639716194187095
aF-122.34339735743151
aF47.640859673935815
asI8302
(lp71
F-122.34343918658475
aF47.640925039471604
aF-122.34380794644456
aF47.641506198943986
asI8305
(lp72
F-122.28193120282252
aF47.61215655841961
aF-122.28241017907331
aF47.613352319007895
asI55410
(lp73
F-122.32995349762787
aF47.60178756228642
aF-122.32970845788726
aF47.60188010618988
asI75769
(lp74
F-122.32950789927601
aF47.60560256807426
aF-122.33007145356666
aF47.60621794123511
asI68905
(lp75
F-122.33428364715948
aF47.6018045805983
aF-122.33428113216604
aF47.60241986222466
asI14697
(lp76
F-122.32195464096544
aF47.62317916944175
aF-122.32098049031785
aF47.623175727287126
asI69086
(lp77
F-122.33408691389933
aF47.59914725780618
aF-122.33408982480915
aF47.59830795886253
asI47225
(lp78
F-122.31207984427307
aF47.659825664954504
aF-122.31204423291686
aF47.66117769550779
asI34938
(lp79
F-122.35663430448612
aF47.62332578589092
aF-122.35662471077718
aF47.62450324704058
asI57902
(lp80
F-122.3173416502917
aF47.6631748060668
aF-122.3173233946357
aF47.66486580281376
asI35694
(lp81
F-122.34617392988241
aF47.61862004147267
aF-122.34616457722726
aF47.61969302803318
asI9698
(lp82
F-122.32421048745506
aF47.606709347514
aF-122.32319202214386
aF47.60713509406747
asI80001
(lp83
F-122.33338331047393
aF47.598227516237785
aF-122.33339657231414
aF47.59527956639125
asI80002
(lp84
F-122.33311580647717
aF47.59822696539877
aF-122.33312908346615
aF47.59527901558337
asI65813
(lp85
F-122.32757006962272
aF47.60010795369571
aF-122.32637300404704
aF47.600106102875245
asI6166
(lp86
F-122.34963914246619
aF47.64153887116991
aF-122.34963375065276
aF47.642227978545506
asI55430
(lp87
F-122.35453544816255
aF47.61702849493502
aF-122.35380692176228
aF47.61759280864293
asI54518
(lp88
F-122.33990929781598
aF47.61661562530035
aF-122.3391986957939
aF47.617164844054734
asI13517
(lp89
F-122.35598405438323
aF47.61789593141851
aF-122.35668456411723
aF47.61830884383619
asI81494
(lp90
F-122.33833766220086
aF47.6220968740862
aF-122.33832910172553
aF47.62315812287428
asI32909
(lp91
F-122.34254747912526
aF47.62094646642137
aF-122.3425383591306
aF47.62199626187417
asI32910
(lp92
F-122.34221498469154
aF47.62094514570407
aF-122.34220566794731
aF47.62201681186299
asI80017
(lp93
F-122.3362859113805
aF47.61321230540285
aF-122.33533816686611
aF47.613609987137124
asI80021
(lp94
F-122.33515684186064
aF47.61368250302039
aF-122.33420676025015
aF47.61407645101398
asI56345
(lp95
F-122.34619213988825
aF47.61981648366911
aF-122.34511135056219
aF47.619812554688146
asI70501
(lp96
F-122.3090226739264
aF47.60622769172076
aF-122.3090117630725
aF47.60800994731357
asI55453
(lp97
F-122.32774725799692
aF47.630659571659734
aF-122.32654155977256
aF47.63155078409456
asI12878
(lp98
F-122.34031004110322
aF47.61097804588734
aF-122.33957498772271
aF47.61154643999571
asI34501
(lp99
F-122.33308147796954
aF47.61972051688759
aF-122.3330876781102
aF47.62079829787655
asI60222
(lp100
F-122.32618837788148
aF47.612932299216155
aF-122.32556691065473
aF47.61293385816697
asI34502
(lp101
F-122.33287467777575
aF47.61971969280871
aF-122.33288087336804
aF47.62079747363689
asI58449
(lp102
F-122.33704336845294
aF47.6209425277761
aF-122.3358927635636
aF47.62093796066969
asI69445
(lp103
F-122.31694268180489
aF47.612963308563444
aF-122.31703570469423
aF47.61406594082967
asI57513
(lp104
F-122.3322073516806
aF47.612134317599086
aF-122.33125866976418
aF47.612531481986146
asI32262
(lp105
F-122.3206488798366
aF47.61018389334579
aF-122.32065060556063
aF47.611095275659146
asI54562
(lp106
F-122.33570405279502
aF47.624717044601624
aF-122.33569558889857
aF47.625759666863495
asI23874
(lp107
F-122.35680120691761
aF47.62321678491332
aF-122.35799829856354
aF47.62322096508365
asI57517
(lp108
F-122.33007616401214
aF47.61305738821398
aF-122.3291260334377
aF47.61345422369137
asI57518
(lp109
F-122.32988538021378
aF47.61296306974953
aF-122.32893524937262
aF47.6133599031156
asI56349
(lp110
F-122.34345608509886
aF47.619806358562236
aF-122.34254023124475
aF47.61980248822194
asI55473
(lp111
F-122.34532971617335
aF47.61136821711217
aF-122.34651234493784
aF47.61164244869679
asI8370
(lp112
F-122.36607779325263
aF47.659308137191786
aF-122.36617669046194
aF47.65997588602403
asI58417
(lp113
F-122.33196861938416
aF47.615004959890456
aF-122.33237710423644
aF47.61544596322988
asI19486
(lp114
F-122.33231959533417
aF47.55494903008272
aF-122.33097081936361
aF47.55494121610476
asI8374
(lp115
F-122.36606523892192
aF47.661498081578124
aF-122.36608466825744
aF47.66215632306968
asI34505
(lp116
F-122.33308800488575
aF47.62085437236246
aF-122.33309436596461
aF47.621940409522075
asI10053
(lp117
F-122.33731649277355
aF47.71596924842884
aF-122.33732336768105
aF47.71641630628974
asI43193
(lp118
F-122.33146120829055
aF47.600118924390955
aF-122.33062981321383
aF47.6000853225983
asI53434
(lp119
F-122.34003875362085
aF47.6166943444781
aF-122.34121310162894
aF47.61738883261485
asI13190
(lp120
F-122.32047754555622
aF47.6524404695944
aF-122.32010167289623
aF47.6529242578995
asI54986
(lp121
F-122.3496880245094
aF47.617694229827045
aF-122.34890359666817
aF47.61830089186675
asI8382
(lp122
F-122.36629131050599
aF47.66721819023425
aF-122.3662895840623
aF47.667874354043306
asI57194
(lp123
F-122.33053962239241
aF47.61693837929091
aF-122.33169931368566
aF47.61762459770453
asI82490
(lp124
F-122.32764838182634
aF47.61391506743152
aF-122.32739083540844
aF47.614023029692646
asI8389
(lp125
F-122.36627579795038
aF47.672386537712256
aF-122.36625018692457
aF47.67304185926753
asI8390
(lp126
F-122.37416276679865
aF47.632123025252085
aF-122.37454542491895
aF47.63320291151566
asI56353
(lp127
F-122.3422415002813
aF47.6198040331694
aF-122.34117069152403
aF47.61979997937631
asI58086
(lp128
F-122.32631702202664
aF47.6107509637762
aF-122.32529990814355
aF47.61117634858307
asI8393
(lp129
F-122.36597060187243
aF47.67456988661852
aF-122.36594469559523
aF47.67522524898069
asI79566
(lp130
F-122.33499167202258
aF47.605149193733624
aF-122.33404303157354
aF47.6055461766036
asI79885
(lp131
F-122.32611531895557
aF47.611939093720686
aF-122.32694243416792
aF47.61287514416072
asI56354
(lp132
F-122.34223475691748
aF47.61964225728389
aF-122.34108717662886
aF47.619637912492955
asI57550
(lp133
F-122.33161724575166
aF47.623151337938054
aF-122.33162371722837
aF47.624208007887894
asI8369
(lp134
F-122.36606065422278
aF47.65897515061367
aF-122.36607082494152
aF47.65923235019144
asI35197
(lp135
F-122.33710956698653
aF47.62326470179488
aF-122.33592233775356
aF47.62326001381546
asI8401
(lp136
F-122.36592500557306
aF47.683298338864425
aF-122.36592346211205
aF47.6839582729052
asI8402
(lp137
F-122.36614251876647
aF47.68403213527554
aF-122.36614097390601
aF47.68469206110568
asI69089
(lp138
F-122.3194747084226
aF47.612227858932634
aF-122.3195311462431
aF47.612881548719876
asI76045
(lp139
F-122.33257581440293
aF47.6106406692258
aF-122.33338708395837
aF47.61152805351299
asI32462
(lp140
F-122.33414490196901
aF47.602541398528636
aF-122.33313562033648
aF47.60296379644387
asI8406
(lp141
F-122.3659181219712
aF47.686232495972305
aF-122.36591655990237
aF47.686898078310925
asI46457
(lp142
F-122.35810363229598
aF47.62216559512311
aF-122.3580953975487
aF47.62324058689311
asI78041
(lp143
F-122.35384102749519
aF47.617799813214106
aF-122.35311516728758
aF47.618361545703806
asI78042
(lp144
F-122.35368756657682
aF47.617701903048484
aF-122.35296436606991
aF47.6182615774027
asI57565
(lp145
F-122.3356070357428
aF47.603035325088875
aF-122.33620221964806
aF47.603685938437714
asI10277
(lp146
F-122.35141557964198
aF47.6643380686847
aF-122.35140939231235
aF47.66497734772844
asI37174
(lp147
F-122.32615320947573
aF47.61514368219746
aF-122.32560454715211
aF47.61514700879471
asI56358
(lp148
F-122.33836294863868
aF47.61962827090907
aF-122.33728828184682
aF47.61962402686765
asI57574
(lp149
F-122.33016128133684
aF47.601599768479005
aF-122.32956405762474
aF47.60132840623922
asI84689
(lp150
F-122.31426046250793
aF47.65839595956229
aF-122.31321346175469
aF47.65838347262663
asI88546
(lp151
F-122.32629616616791
aF47.59910218905502
aF-122.32518079005578
aF47.599100481809785
asI79570
(lp152
F-122.33278348247993
aF47.60607272463617
aF-122.33182384334586
aF47.60647428389261
asI58622
(lp153
F-122.34869270612369
aF47.61590243752216
aF-122.347905282062
aF47.616511609665885
asI81297
(lp154
F-122.3409087135821
aF47.61250205627029
aF-122.3401210073963
aF47.61311107375063
asI69090
(lp155
F-122.31926723761407
aF47.61222375081592
aF-122.31932390787935
aF47.61288016436982
asI78069
(lp156
F-122.32926619685618
aF47.61857503755908
aF-122.3292728646968
aF47.61970648158164
asI35881
(lp157
F-122.34221642207775
aF47.62634328065367
aF-122.34111643410716
aF47.62633908403309
asI78073
(lp158
F-122.32929853671416
aF47.62316348556759
aF-122.32930529651856
aF47.62423315528385
asI30970
(lp159
F-122.33515601897511
aF47.61366694153618
aF-122.33606254174525
aF47.6143060978576
asI30969
(lp160
F-122.33530969381187
aF47.61360894325339
aF-122.3362134195972
aF47.61424612560487
asI77314
(lp161
F-122.32242650783722
aF47.61151044073931
aF-122.32302108521928
aF47.61216171556262
asI13170
(lp162
F-122.39226567153948
aF47.700170436150636
aF-122.39120784786296
aF47.700841322908715
asI30974
(lp163
F-122.34265240880848
aF47.61813432084771
aF-122.34328384232059
aF47.618507736004595
asI76033
(lp164
F-122.32711489771478
aF47.60467382367377
aF-122.32766904895928
aF47.605279713347485
asI12546
(lp165
F-122.25320452554953
aF47.50522530865642
aF-122.25158627377964
aF47.50372410954361
asI53542
(lp166
F-122.33310473128518
aF47.6131418381012
aF-122.33395549641229
aF47.61407169854732
asI77609
(lp167
F-122.33268011952543
aF47.604279153116245
aF-122.33173844905045
aF47.60467313478317
asI12549
(lp168
F-122.25089519495518
aF47.502855492594456
aF-122.2507877506934
aF47.50270136481401
asI76038
(lp169
F-122.32898221435917
aF47.60692838641575
aF-122.32945792341215
aF47.60744826498879
asI12673
(lp170
F-122.3540504429199
aF47.62550754342761
aF-122.3529340938322
aF47.625503414477315
asI53133
(lp171
F-122.34514778413494
aF47.618624701202876
aF-122.3451486480373
aF47.61969299106952
asI65801
(lp172
F-122.33546624967884
aF47.600109277972756
aF-122.33430600571856
aF47.600107471914924
asI37130
(lp173
F-122.32676075456384
aF47.614027464478404
aF-122.32623680576795
aF47.61402453387246
asI36357
(lp174
F-122.32877792091774
aF47.601773111816954
aF-122.32639087017525
aF47.60176486148741
asI65805
(lp175
F-122.3340794891477
aF47.60011268791972
aF-122.33167038459372
aF47.600109767459486
asI76046
(lp176
F-122.33242165814102
aF47.61068579937607
aF-122.3332542184827
aF47.61159647590678
asI32470
(lp177
F-122.32643329480534
aF47.60578981289983
aF-122.32541542779335
aF47.60621531033089
asI51473
(lp178
F-122.33308130263102
aF47.60608327506363
aF-122.3336491765232
aF47.60670374794507
asI28946
(lp179
F-122.32934935180671
aF47.602325717807204
aF-122.32950457707217
aF47.602496052634756
asI30697
(lp180
F-122.33460320479335
aF47.61116454341889
aF-122.33541247825306
aF47.61204918708833
asI65545
(lp181
F-122.33543937532879
aF47.59926451874508
aF-122.33419589256417
aF47.599262414663094
asI28949
(lp182
F-122.33503593625667
aF47.60823092571195
aF-122.33584481014645
aF47.60911479073307
asI65814
(lp183
F-122.32757459395502
aF47.599965402735926
aF-122.32637753165757
aF47.59996355196311
asI28953
(lp184
F-122.34407841838305
aF47.61534476759348
aF-122.3452361444388
aF47.61602861455397
asI28954
(lp185
F-122.34390770252865
aF47.61547690332948
aF-122.34506542928074
aF47.616160752024356
asI51485
(lp186
F-122.33887947912078
aF47.61227156067204
aF-122.34003680483438
aF47.612955667622195
asI28958
(lp187
F-122.34615674772768
aF47.61678441489523
aF-122.34694806365113
aF47.617252454737915
asI33274
(lp188
F-122.34975513042515
aF47.65055818037764
aF-122.34983045557983
aF47.65125265208476
asI28961
(lp189
F-122.34817770636319
aF47.617775310747874
aF-122.34896851072071
aF47.61824274782231
asI51490
(lp190
F-122.34262484916677
aF47.614696890885654
aF-122.34378204688421
aF47.61538081905195
asI1578
(lp191
F-122.31573900154727
aF47.6742198052118
aF-122.31573901244934
aF47.674913930244415
asI78117
(lp192
F-122.35060789729046
aF47.6133418709333
aF-122.35140107836017
aF47.613810735250354
asI51494
(lp193
F-122.34882080754006
aF47.61862832941362
aF-122.3487621446814
aF47.61966198477662
asI80945
(lp194
F-122.32367633905886
aF47.6109815000232
aF-122.32427168502029
aF47.61163239353964
asI74025
(lp195
F-122.34018069247618
aF47.613048003436646
aF-122.34134086651326
aF47.613733795262625
asI53546
(lp196
F-122.34091339243382
aF47.62546882007484
aF-122.34090651936243
aF47.62625328018187
asI53549
(lp197
F-122.3411401669393
aF47.62718986245227
aF-122.341090913551
aF47.62921188830375
asI53550
(lp198
F-122.34088564659066
aF47.62714871238386
aF-122.34083545020407
aF47.62920904445059
asI58077
(lp199
F-122.33750909071465
aF47.606210592415266
aF-122.33657084746385
aF47.606602793349275
asI8398
(lp200
F-122.3659323668643
aF47.68148213283714
aF-122.36593189821028
aF47.681740785558716
asI80177
(lp201
F-122.34231939952566
aF47.60811981044208
aF-122.34203536255355
aF47.60824376103806
asI65546
(lp202
F-122.33543984020352
aF47.59913841056293
aF-122.33423269575874
aF47.599136368143434
asI1033
(lp203
F-122.27013956210789
aF47.51240694250738
aF-122.27015634099048
aF47.509577245925136
asI2782
(lp204
F-122.35260251580893
aF47.631031866241784
aF-122.35257667908444
aF47.63227305688998
asI59702
(lp205
F-122.31981689378935
aF47.61148828779315
aF-122.31930229820446
aF47.6117027754277
asI80185
(lp206
F-122.32886779658635
aF47.613571877683334
aF-122.32786566009301
aF47.61399171535236
asI37178
(lp207
F-122.3244073103604
aF47.61516507029571
aF-122.32345909020461
aF47.61517057504666
asI23782
(lp208
F-122.40567500627627
aF47.63704331238666
aF-122.406356067799
aF47.637464830959104
asI12682
(lp209
F-122.33420900612369
aF47.62507230653793
aF-122.33259206422119
aF47.6250728526006
asI31890
(lp210
F-122.34766503663357
aF47.6141545483245
aF-122.34692251697896
aF47.61472873569089
asI66613
(lp211
F-122.32628605412783
aF47.59758356141914
aF-122.32509007275979
aF47.59758156149437
asI80193
(lp212
F-122.34363285509602
aF47.6087507290769
aF-122.34333224425193
aF47.60887511435882
asI80194
(lp213
F-122.34347147680168
aF47.608669661781505
aF-122.34317086629964
aF47.60879404663385
asI54449
(lp214
F-122.3245682283812
aF47.6141540401717
aF-122.32458125015917
aF47.61515865971872
asI21765
(lp215
F-122.38153913957831
aF47.56833308847216
aF-122.38275123658994
aF47.56833472148711
asI76101
(lp216
F-122.32386855647079
aF47.59997059692695
aF-122.32387158381489
aF47.59920521842837
asI80198
(lp217
F-122.34167375116736
aF47.60941549987813
aF-122.34143278132123
aF47.60951750074926
asI2785
(lp218
F-122.35325611359222
aF47.634048293260435
aF-122.35324709684693
aF47.63482451682119
asI70866
(lp219
F-122.33145627878447
aF47.599145916274736
aF-122.33145888124871
aF47.598388618906945
asI76105
(lp220
F-122.32385975408035
aF47.599128711888284
aF-122.32386312550578
aF47.59836372196462
asI76106
(lp221
F-122.32364088312069
aF47.59912827032503
aF-122.32364425776274
aF47.59836328040787
asI13309
(lp222
F-122.33918015850637
aF47.6138344166553
aF-122.33846457786392
aF47.61438768635712
asI80550
(lp223
F-122.3396587750565
aF47.623161629922116
aF-122.33856792355257
aF47.623157526260044
asI46725
(lp224
F-122.31688584778284
aF47.606260261277306
aF-122.31688569264696
aF47.60682138254137
asI4433
(lp225
F-122.36088471568677
aF47.65371065361219
aF-122.36089042733978
aF47.65410611146176
asI31058
(lp226
F-122.33530971267615
aF47.615041122796654
aF-122.33652736744689
aF47.6157612014017
asI35882
(lp227
F-122.3422176794276
aF47.626192501033685
aF-122.34111365058665
aF47.62618828885366
asI58182
(lp228
F-122.33012191587807
aF47.608179397762925
aF-122.32911404535288
aF47.60860084787061
asI4437
(lp229
F-122.36072942930733
aF47.6624019547577
aF-122.36073121977876
aF47.66287883732929
asI55638
(lp230
F-122.33419908558349
aF47.6208750094158
aF-122.33420476996743
aF47.62190691731406
asI12550
(lp231
F-122.25050522047148
aF47.502504187538825
aF-122.25001127533201
aF47.50116607751931
asI4441
(lp232
F-122.36073672435215
aF47.66441265443383
aF-122.36073914498338
aF47.66499876536597
asI4442
(lp233
F-122.36086093199181
aF47.665047775194836
aF-122.36086126583044
aF47.66567873819768
asI51474
(lp234
F-122.3328662750188
aF47.60617649710945
aF-122.333429893704
aF47.60679232334523
asI33145
(lp235
F-122.33444382557762
aF47.61973549420593
aF-122.33445004914174
aF47.62079769951015
asI4445
(lp236
F-122.32180010747133
aF47.679547660690474
aF-122.32180972986363
aF47.680171805876
asI8542
(lp237
F-122.32235129596754
aF47.59829000840323
aF-122.32235419099113
aF47.59756868844017
asI2789
(lp238
F-122.35311116167256
aF47.637447873821955
aF-122.35310214140262
aF47.638223839860636
asI43197
(lp239
F-122.32887188569003
aF47.60010441678189
aF-122.327679280587
aF47.60010263759267
asI20833
(lp240
F-122.28480018049291
aF47.55051010069533
aF-122.28348306557184
aF47.550506739550826
asI120203
(lp241
F-122.33997119574549
aF47.63465383647281
aF-122.33998484806318
aF47.63520316054318
asI11118
(lp242
F-122.33107307297955
aF47.66576777514607
aF-122.33156517502574
aF47.66643049141769
asI20837
(lp243
F-122.27533258660037
aF47.550380545287126
aF-122.27270335746384
aF47.55036817189928
asI20838
(lp244
F-122.27259344646313
aF47.55043894696325
aF-122.26996505728101
aF47.550427190110035
asI54673
(lp245
F-122.35165087606043
aF47.61768807002124
aF-122.35093841153763
aF47.618239212745635
asI20841
(lp246
F-122.33487251184796
aF47.54354719954491
aF-122.33447746699686
aF47.54385384297713
asI14698
(lp247
F-122.32336747774015
aF47.61517064044599
aF-122.32219107026533
aF47.61516600674914
asI14674
(lp248
F-122.32440787111054
aF47.614026463527395
aF-122.32365226267748
aF47.61403464993987
asI20845
(lp249
F-122.32946479737603
aF47.545296075481836
aF-122.32844276847108
aF47.54556776938829
asI20846
(lp250
F-122.32826329004358
aF47.5456095899251
aF-122.32732105398229
aF47.54586005750139
asI14397
(lp251
F-122.31925030845511
aF47.61188544737451
aF-122.31872705372486
aF47.612103474959525
asI46253
(lp252
F-122.34275346207967
aF47.61104235553582
aF-122.34397090350599
aF47.61176278887372
asI27398
(lp253
F-122.33018723678298
aF47.60082479518599
aF-122.33025534906066
aF47.60001258286568
asI35682
(lp254
F-122.37999192106477
aF47.66728470898925
aF-122.3814737284685
aF47.668540341734214
asI66622
(lp255
F-122.3236665881366
aF47.597428333037826
aF-122.32310356509403
aF47.597426408025385
asI33142
(lp256
F-122.33419049771047
aF47.618610339916295
aF-122.33419586684256
aF47.6196267102214
asI32489
(lp257
F-122.35071030933314
aF47.617128364873025
aF-122.34999778182753
aF47.617679574652
asI58797
(lp258
F-122.33616194697146
aF47.60280314635823
aF-122.33675719509702
aF47.60345363106728
asI33146
(lp259
F-122.33419636534023
aF47.619715624108984
aF-122.33420251970428
aF47.62076687890281
asI57377
(lp260
F-122.33852163429081
aF47.61227760995294
aF-122.33753378331119
aF47.61269352494306
asI39293
(lp261
F-122.31319439372768
aF47.65541021268785
aF-122.31226453050455
aF47.65539912172605
asI24222
(lp262
F-122.33404460317892
aF47.592294383788186
aF-122.33404550193177
aF47.59033129929846
asI30101
(lp263
F-122.34450323539
aF47.616790431454646
aF-122.34531196348443
aF47.61726848982514
asI35201
(lp264
F-122.33166637313568
aF47.623188257864356
aF-122.33052394999864
aF47.623191479338615
asI35202
(lp265
F-122.33166956276587
aF47.62305117335916
aF-122.33054329007946
aF47.62305434934077
asI30102
(lp266
F-122.34435912659738
aF47.61690188372885
aF-122.34517393354204
aF47.61738353939615
asI34881
(lp267
F-122.33182579215499
aF47.62087145797704
aF-122.33183263626741
aF47.62191308269968
asI94602
(lp268
F-122.33421197564665
aF47.62645418694774
aF-122.33405292099364
aF47.62644420070472
asI24554
(lp269
F-122.3166745152352
aF47.60809980511068
aF-122.31667456481865
aF47.60916642948081
asI33517
(lp270
F-122.332911733428
aF47.622036221921654
aF-122.33173907347961
aF47.622031298546936
asI80273
(lp271
F-122.35682752999236
aF47.619817278904634
aF-122.35681993053078
aF47.620894776034284
asI80274
(lp272
F-122.35666537867296
aF47.61981128636151
aF-122.3566577178487
aF47.62089698769718
asI94611
(lp273
F-122.3323374012342
aF47.6277940563879
aF-122.33101433020184
aF47.628830440937534
asI94612
(lp274
F-122.33088743473714
aF47.6289298165047
aF-122.33009519728117
aF47.62955004636069
asI80277
(lp275
F-122.35681924606672
aF47.62098640642889
aF-122.3568110469112
aF47.622025267318755
asI80278
(lp276
F-122.35665707490655
aF47.62098308732515
aF-122.35664887251347
aF47.62202194820341
asI11673
(lp277
F-122.32443991982134
aF47.608692527609314
aF-122.32342236248205
aF47.609118160461506
asI8601
(lp278
F-122.32421279452743
aF47.60483776034194
aF-122.32478656513415
aF47.60546520026385
asI76186
(lp279
F-122.32911441549915
aF47.60872622654876
aF-122.32970989952899
aF47.609377167250344
asI91546
(lp280
F-122.3568105157766
aF47.622064805408364
aF-122.35794248257803
aF47.62206916172669
asI35909
(lp281
F-122.34176748486735
aF47.611838185380925
aF-122.34098189098479
aF47.61244547867543
asI8609
(lp282
F-122.36771124418301
aF47.71788959871383
aF-122.36775525723728
aF47.719638889238134
asI8610
(lp283
F-122.32790625182865
aF47.618532269450526
aF-122.32791315755874
aF47.62078885439168
asI80745
(lp284
F-122.3253185696451
aF47.61130071113052
aF-122.32430052247746
aF47.611726581406614
asI8613
(lp285
F-122.33328535686766
aF47.61481425335177
aF-122.33409400176836
aF47.61533383383923
asI76198
(lp286
F-122.34098868540224
aF47.61977712354593
aF-122.34097924790169
aF47.62087261651443
asI35241
(lp287
F-122.31767572074129
aF47.661371306399694
aF-122.31761012199311
aF47.66149876635034
asI35242
(lp288
F-122.31749752846112
aF47.66138857721334
aF-122.31738170178575
aF47.66167378792258
asI59958
(lp289
F-122.32205736717304
aF47.61400352101627
aF-122.32083600605333
aF47.614012214298974
asI58801
(lp290
F-122.33813746488751
aF47.60495709154648
aF-122.33873079376109
aF47.60560560628205
asI70762
(lp291
F-122.35269697255374
aF47.61865164445906
aF-122.35268841879693
aF47.61975548637059
asI8625
(lp292
F-122.36884287327318
aF47.62878950161905
aF-122.36891670479922
aF47.628826333934285
asI14770
(lp293
F-122.35802795328705
aF47.683977005562106
aF-122.36059620635297
aF47.6839727246661
asI86057
(lp294
F-122.32542988458239
aF47.679665733773184
aF-122.32509087525119
aF47.679386004133
asI76054
(lp295
F-122.33872310426278
aF47.6159278030785
aF-122.33994247527458
aF47.6166483889281
asI35749
(lp296
F-122.33295442249742
aF47.62087949415827
aF-122.33178105929899
aF47.620882728408525
asI82362
(lp297
F-122.32082960658487
aF47.62420580107165
aF-122.31996996195554
aF47.624204413071794
asI94651
(lp298
F-122.33092759997912
aF47.6040360358124
aF-122.32997528734721
aF47.60443435738659
asI56346
(lp299
F-122.34630273930394
aF47.61965239351902
aF-122.34511266046279
aF47.61964806779412
asI55370
(lp300
F-122.34225138138855
aF47.61860148551865
aF-122.3422422211782
aF47.6196575408109
asI35681
(lp301
F-122.38013778736821
aF47.667241186428235
aF-122.38160752406247
aF47.66848658759192
asI12290
(lp302
F-122.35647089565919
aF47.67115167630642
aF-122.35550202493643
aF47.67114827005774
asI13313
(lp303
F-122.34004346877174
aF47.61316686634068
aF-122.33925863443874
aF47.613773739650206
asI77558
(lp304
F-122.32529221928269
aF47.60625714670824
aF-122.32427582041558
aF47.60668203603857
asI77217
(lp305
F-122.34437647961698
aF47.61335750329758
aF-122.34358870985335
aF47.61396680886068
asI35234
(lp306
F-122.31773692908338
aF47.656923779755765
aF-122.31772106167334
aF47.657510495214545
asI34837
(lp307
F-122.33668817073503
aF47.610302309650294
aF-122.33574019763849
aF47.61069867463147
asI48449
(lp308
F-122.38486722376761
aF47.66777146596266
aF-122.38486741373279
aF47.66861554956928
asI25041
(lp309
F-122.31207359500699
aF47.66131995649022
aF-122.31204714264892
aF47.663065062441355
asI25042
(lp310
F-122.31185443150639
aF47.66132117575511
aF-122.31182797179098
aF47.663066281655254
asI94677
(lp311
F-122.33297224845225
aF47.62726412555351
aF-122.33241232029572
aF47.62773172261679
asI81210
(lp312
F-122.31307771243763
aF47.659846020407514
aF-122.31304341008543
aF47.66115342164042
asI54009
(lp313
F-122.34898431697759
aF47.61146148371652
aF-122.35055388884786
aF47.61239458519685
asI54450
(lp314
F-122.32434930196779
aF47.614155337554564
aF-122.32436299351367
aF47.61521196740198
asI75781
(lp315
F-122.33369537532255
aF47.61017190622433
aF-122.33450327452755
aF47.611055174919976
asI12765
(lp316
F-122.3931187370018
aF47.54054096512701
aF-122.39366646308335
aF47.54053412708778
asI77221
(lp317
F-122.34262410301571
aF47.61469976283315
aF-122.34184471176457
aF47.61530262247263
asI81305
(lp318
F-122.33491532383738
aF47.617144729327514
aF-122.33435926893013
aF47.61757450217849
asI12769
(lp319
F-122.33854694926993
aF47.605656675886365
aF-122.33811846812026
aF47.60583589886431
asI12770
(lp320
F-122.327164450569
aF47.70141756585
aF-122.32586936235883
aF47.70139730347911
asI57914
(lp321
F-122.31727791463133
aF47.67502856891614
aF-122.31727797364829
aF47.67575007524757
asI14678
(lp322
F-122.30856489891943
aF47.62871166420643
aF-122.30732860861231
aF47.6287052901117
asI35238
(lp323
F-122.31765119027212
aF47.65989012891093
aF-122.31761843127596
aF47.661157446073915
asI79677
(lp324
F-122.32515211935493
aF47.59828648531422
aF-122.32515522726365
aF47.59752134797758
asI70737
(lp325
F-122.33657799329372
aF47.60658665978642
aF-122.33713069305823
aF47.60719072953117
asI17065
(lp326
F-122.3255014205177
aF47.66938197362616
aF-122.3228946705888
aF47.66936321792274
asI70738
(lp327
F-122.33638018036945
aF47.60667264890344
aF-122.33693287875629
aF47.607276719783314
asI41725
(lp328
F-122.3876784139802
aF47.668752308266335
aF-122.39013749477942
aF47.668742463221
asI49649
(lp329
F-122.34233942294938
aF47.61314068948963
aF-122.34350642076241
aF47.61383069373236
asI49650
(lp330
F-122.34217166966295
aF47.61327457266563
aF-122.34332952734536
aF47.613959174120545
asI47958
(lp331
F-122.33243757526007
aF47.60238806861493
aF-122.33299043701498
aF47.602992584760024
asI49653
(lp332
F-122.34363050007497
aF47.61392590682024
aF-122.34479631583974
aF47.61461519762626
asI49654
(lp333
F-122.34348029810262
aF47.614033751736834
aF-122.34465220233953
aF47.61472664340852
asI8617
(lp334
F-122.32134616141826
aF47.56717056327581
aF-122.32132632989978
aF47.56623757785349
asI33273
(lp335
F-122.34995762577971
aF47.650624817522456
aF-122.3500329537353
aF47.65131928909407
asI49658
(lp336
F-122.34608022348897
aF47.61557110238729
aF-122.34691459353029
aF47.61606423203642
asI8618
(lp337
F-122.34669331946783
aF47.53190040808428
aF-122.34668209690679
aF47.53016602273424
asI78933
(lp338
F-122.33229445300394
aF47.61560162933051
aF-122.33153004333663
aF47.616187764014136
asI2922
(lp339
F-122.33143808387503
aF47.60082179567947
aF-122.3314395717383
aF47.60007370809526
asI57861
(lp340
F-122.35663035282255
aF47.623344990142115
aF-122.35543423088761
aF47.62334014204374
asI57862
(lp341
F-122.3566396245664
aF47.62321069244427
aF-122.35544350545862
aF47.62320584444677
asI80641
(lp342
F-122.3553357860967
aF47.62551236719278
aF-122.35421213867674
aF47.62550814865914
asI80829
(lp343
F-122.33874042656339
aF47.604702758670435
aF-122.33814075838163
aF47.604955624946854
asI56074
(lp344
F-122.33967408265649
aF47.62196354234711
aF-122.33857956384354
aF47.621959453797146
asI94731
(lp345
F-122.39618933663887
aF47.6676669797889
aF-122.39812885599777
aF47.66745619903112
asI7246
(lp346
F-122.33046129351862
aF47.60521042126039
aF-122.33102430132357
aF47.60582588789356
asI27394
(lp347
F-122.33017599801295
aF47.60162033971331
aF-122.3301787002273
aF47.60093708084771
asI77222
(lp348
F-122.34249777272352
aF47.61461420074297
aF-122.34171040128233
aF47.61522323212403
asI46254
(lp349
F-122.34260395023772
aF47.61115788701011
aF-122.343821392297
aF47.6118783219456
asI94736
(lp350
F-122.39845375356253
aF47.66742687799166
aF-122.39903914908314
aF47.667365073933944
asI57874
(lp351
F-122.33037582941192
aF47.623087726947205
aF-122.32920671545484
aF47.62309117521327
asI36093
(lp352
F-122.33565874240263
aF47.60181184212533
aF-122.33560734168773
aF47.602170597521315
asI34222
(lp353
F-122.32947109501127
aF47.607452035546025
aF-122.32847332245923
aF47.60786931459611
asI30702
(lp354
F-122.3362590621134
aF47.613207569438174
aF-122.33685730624119
aF47.61360941014518
asI7258
(lp355
F-122.32323197627245
aF47.710031908908874
aF-122.32329503556537
aF47.712195175462504
asI80842
(lp356
F-122.32345855976895
aF47.610956652048955
aF-122.32244209335046
aF47.61138163447591
asI59962
(lp357
F-122.31938503272072
aF47.614014318918144
aF-122.3181883581686
aF47.614022814420565
asI53797
(lp358
F-122.33216159396179
aF47.61353895415158
aF-122.33299557825502
aF47.614450679869506
asI8394
(lp359
F-122.36616085120623
aF47.6753029399272
aF-122.36613451087959
aF47.67594920833259
asI86449
(lp360
F-122.38481941264284
aF47.66952277962561
aF-122.38746957355917
aF47.66952615038435
asI59945
(lp361
F-122.32215858606676
aF47.619967081505806
aF-122.3210153541358
aF47.61997526941932
asI54561
(lp362
F-122.33594735936238
aF47.62471794693197
aF-122.33593872281206
aF47.62578246149239
asI35821
(lp363
F-122.3293567441018
aF47.610591868424414
aF-122.32828731637998
aF47.61103890139121
asI36162
(lp364
F-122.34050503232912
aF47.63813334900352
aF-122.34134120037339
aF47.63959358863377
asI53805
(lp365
F-122.33586150568073
aF47.61637960254178
aF-122.33703376946364
aF47.61707277606127
asI16942
(lp366
F-122.30437682589209
aF47.664937077217935
aF-122.30410892430928
aF47.664934912494054
asI75170
(lp367
F-122.34175880769405
aF47.61536469097867
aF-122.34293099026537
aF47.61605711065148
asI37437
(lp368
F-122.32064583204296
aF47.61302931593832
aF-122.31985361161537
aF47.613011482934155
asI12849
(lp369
F-122.33242527688694
aF47.60734165707568
aF-122.331446981141
aF47.60775084017802
asI10802
(lp370
F-122.3477978512086
aF47.64222473851409
aF-122.34761284758365
aF47.64222404266056
asI59957
(lp371
F-122.3220270633628
aF47.61413533562746
aF-122.3208056988847
aF47.61414402858826
asI88630
(lp372
F-122.3315806171046
aF47.59821911764655
aF-122.33048086595068
aF47.598220614971254
asI82489
(lp373
F-122.32781001437719
aF47.6140085900428
aF-122.32744774225154
aF47.61416045296867
asI88634
(lp374
F-122.32627920712198
aF47.59829612384039
aF-122.3251275154317
aF47.59829442573162
asI8378
(lp375
F-122.36629877324265
aF47.66441625799252
aF-122.36629719491857
aF47.66499946383053
asI76398
(lp376
F-122.32210449947132
aF47.60277703838418
aF-122.32269507816892
aF47.603429006528
asI37438
(lp377
F-122.32065244051846
aF47.612895057327975
aF-122.31986426416677
aF47.612877315291655
asI58805
(lp378
F-122.34372937024212
aF47.61028680019893
aF-122.34399370106621
aF47.610619399241585
asI31297
(lp379
F-122.32877110571972
aF47.60986289545943
aF-122.32936634359625
aF47.61051376477936
asI33733
(lp380
F-122.33247127489702
aF47.60239334900257
aF-122.33152201173783
aF47.60278946889751
asI76357
(lp381
F-122.32257355861226
aF47.59744615935008
aF-122.32257656971296
aF47.59672497960444
asI76358
(lp382
F-122.32233037648426
aF47.5974456945738
aF-122.32233340231386
aF47.596721783211564
asI70753
(lp383
F-122.3470815688408
aF47.614767987267584
aF-122.3478722048005
aF47.6152356209158
asI18621
(lp384
F-122.38221119391305
aF47.669529140555845
aF-122.38464896164197
aF47.66953612195403
asI12873
(lp385
F-122.3413239546298
aF47.61039390242388
aF-122.34053109396461
aF47.61100700956412
asI12874
(lp386
F-122.32206282995628
aF47.602678937520984
aF-122.3210449369431
aF47.603103778834374
asI52530
(lp387
F-122.34528944021028
aF47.61745187815541
aF-122.34610173288426
aF47.61793246943944
asI37186
(lp388
F-122.32069293507489
aF47.61518122816779
aF-122.32001936030687
aF47.61518600069206
asI31309
(lp389
F-122.3399514144624
aF47.61859737725799
aF-122.33990265914962
aF47.61965562164908
asI31310
(lp390
F-122.33970787287043
aF47.618600458990876
aF-122.33965974249311
aF47.61964503084702
asI76194
(lp391
F-122.3365945906969
aF47.61580465259221
aF-122.33775920494544
aF47.616494415141965
asI62033
(lp392
F-122.31308590540173
aF47.65985445388885
aF-122.31208748655553
aF47.65984245956118
asI62034
(lp393
F-122.31308063385586
aF47.65974745568337
aF-122.31208221706557
aF47.65973546130948
asI59961
(lp394
F-122.3194034189233
aF47.614156753573326
aF-122.31820674109868
aF47.61416524926897
asI12885
(lp395
F-122.33359148681778
aF47.61636542068424
aF-122.33284554311648
aF47.616942237506294
asI35417
(lp396
F-122.33638009478089
aF47.6066825597124
aF-122.33543121036537
aF47.60707947079577
asI59994
(lp397
F-122.32783026095485
aF47.615154791516225
aF-122.32683984369365
aF47.615136535909826
asI9142
(lp398
F-122.3010129096811
aF47.54769423435608
aF-122.30059713435756
aF47.54641909049621
asI59997
(lp399
F-122.32672638271026
aF47.61529989873493
aF-122.32621763957188
aF47.61529681325058
asI35422
(lp400
F-122.33518871814762
aF47.60703264475066
aF-122.33424002210978
aF47.60742973080511
asI70757
(lp401
F-122.35082230140581
aF47.61698737713154
aF-122.35163471885816
aF47.61746769603143
asI77574
(lp402
F-122.3522819075088
aF47.61569188100666
aF-122.35154484425192
aF47.616261914698754
asI58177
(lp403
F-122.3346445186135
aF47.60643245294434
aF-122.33369648124098
aF47.60682887866845
asI54410
(lp404
F-122.34034745386577
aF47.618049367129025
aF-122.33980237215734
aF47.61847162995051
asI70758
(lp405
F-122.35068119514717
aF47.61711517176143
aF-122.35149361329749
aF47.617595491842486
asI14950
(lp406
F-122.36877944235302
aF47.69920709073686
aF-122.37135324211972
aF47.69921124522171
asI75785
(lp407
F-122.34367051646099
aF47.6174575191366
aF-122.3444793712274
aF47.61793601750994
asI14953
(lp408
F-122.31938113376061
aF47.61301094236652
aF-122.31825458398998
aF47.6130034193489
asI14954
(lp409
F-122.31933068281727
aF47.61287078292839
aF-122.31819606034684
aF47.612863205271715
asI55637
(lp410
F-122.33443043816612
aF47.6209154845176
aF-122.33443621764575
aF47.62196381537003
asI35437
(lp411
F-122.32310591802958
aF47.61223283274215
aF-122.32228442945764
aF47.61258049190181
asI35438
(lp412
F-122.32301726163367
aF47.61212158267954
aF-122.32213685753982
aF47.61249417466833
asI32550
(lp413
F-122.33369387470972
aF47.60371977083706
aF-122.33274522618386
aF47.60411653228109
asI53810
(lp414
F-122.33966159950792
aF47.62327121185846
aF-122.33965194521835
aF47.62447267274583
asI81342
(lp415
F-122.34517038991005
aF47.617377704601836
aF-122.34445146275077
aF47.617934333112125
asI10870
(lp416
F-122.31467603289133
aF47.638217515359514
aF-122.31414772162879
aF47.63801489349443
asI25705
(lp417
F-122.34060417373489
aF47.61093368200362
aF-122.34176147887992
aF47.611618183486776
asI76409
(lp418
F-122.32683196582029
aF47.60769505700248
aF-122.32742725197606
aF47.60834561161659
asI76410
(lp419
F-122.32665271017632
aF47.607770071439546
aF-122.3272479949494
aF47.60842062699034
asI76413
(lp420
F-122.32750378018841
aF47.608429326361154
aF-122.32809859055484
aF47.60908025507978
asI76414
(lp421
F-122.32732232901039
aF47.60850194084985
aF-122.32791713793728
aF47.6091528705159
asI94847
(lp422
F-122.32309674130961
aF47.59828450583376
aF-122.32254899732162
aF47.59828462955715
asI11137
(lp423
F-122.34100123713216
aF47.61978842126061
aF-122.33980213382408
aF47.61978458192858
asI76417
(lp424
F-122.32814321787538
aF47.60912907968951
aF-122.32873837620103
aF47.60978018758849
asI58802
(lp425
F-122.33794120082352
aF47.60501350506465
aF-122.33853665440812
aF47.60566434529483
asI10886
(lp426
F-122.35400386930723
aF47.629800461127985
aF-122.3512193664757
aF47.629790379439385
asI8614
(lp427
F-122.32148074165165
aF47.57357677312007
aF-122.321453054367
aF47.57344094483418
asI81453
(lp428
F-122.35423330823345
aF47.6180263806088
aF-122.35422858163307
aF47.61859459952597
asI8841
(lp429
F-122.40895266890092
aF47.64953808524584
aF-122.40895006928025
aF47.64992810113221
asI57994
(lp430
F-122.34103587921659
aF47.62537356814116
aF-122.33984435381053
aF47.62536893486639
asI72333
(lp431
F-122.35094611492308
aF47.61823248476664
aF-122.35143709806295
aF47.61852268878993
asI76430
(lp432
F-122.33968871030672
aF47.61977308882498
aF-122.33968018205086
aF47.62081566061033
asI47213
(lp433
F-122.31384485634189
aF47.6516248945186
aF-122.31377690277058
aF47.65188188859923
asI76433
(lp434
F-122.33984903400564
aF47.622101128202935
aF-122.33984083867786
aF47.62316788022307
asI119444
(lp435
F-122.32309896218005
aF47.59757717499297
aF-122.3225401909367
aF47.597577352804436
asI43118
(lp436
F-122.32628178259458
aF47.596607598521246
aF-122.32515444699777
aF47.59660594197715
asI8854
(lp437
F-122.38482639530169
aF47.50239374528335
aF-122.38271462992827
aF47.50157549854086
asI80537
(lp438
F-122.3553292013064
aF47.62333974923539
aF-122.35417721079999
aF47.62333552041141
asI8858
(lp439
F-122.34013338647068
aF47.654148941050394
aF-122.34013226053428
aF47.654295516085256
asI35845
(lp440
F-122.31321382513748
aF47.66133837151574
aF-122.3131884790353
aF47.66299387555115
asI12957
(lp441
F-122.34278616249905
aF47.65057147216589
aF-122.34268664448759
aF47.652670571556975
asI80542
(lp442
F-122.3489110175739
aF47.623375595289694
aF-122.34834403327065
aF47.623204801140844
asI54725
(lp443
F-122.32089082059687
aF47.61413778357089
aF-122.32090790095864
aF47.61522084731493
asI84641
(lp444
F-122.31437088347184
aF47.65542437784889
aF-122.31344908293079
aF47.65541327101996
asI8870
(lp445
F-122.33917298167538
aF47.6887587034588
aF-122.33918676848828
aF47.690483017995106
asI55409
(lp446
F-122.33026714839237
aF47.60179730834389
aF-122.329806793781
aF47.60197169305532
asI80553
(lp447
F-122.3329112936982
aF47.62317382538978
aF-122.33176728714858
aF47.6231770089616
asI17066
(lp448
F-122.32131250538387
aF47.66929357642005
aF-122.32015861782234
aF47.66928566934742
asI35501
(lp449
F-122.32574410003532
aF47.61012971845434
aF-122.32472668251658
aF47.6105552359461
asI35502
(lp450
F-122.32566650411061
aF47.610039680706244
aF-122.32464908771767
aF47.61046519750508
asI43198
(lp451
F-122.32887233105725
aF47.59996734246664
aF-122.32767972909481
aF47.59996556328214
asI58474
(lp452
F-122.33675649557901
aF47.608735731398134
aF-122.33580856244558
aF47.60913296899723
asI59166
(lp453
F-122.32064845751466
aF47.60799617504084
aF-122.31940691179842
aF47.607989985982755
asI54729
(lp454
F-122.32092144719945
aF47.61530828741121
aF-122.32093870928233
aF47.616399704273924
asI9770
(lp455
F-122.33135036537735
aF47.65798564212647
aF-122.33133511685911
aF47.65907984506374
asI80570
(lp456
F-122.31772098668328
aF47.657513272408025
aF-122.31770003340218
aF47.65832736006486
asI31061
(lp457
F-122.33823772025416
aF47.616573325645355
aF-122.33921626395622
aF47.61715131988072
asI54730
(lp458
F-122.32069850910901
aF47.61531263503043
aF-122.32071576625279
aF47.61640405175481
asI25717
(lp459
F-122.3489316049995
aF47.61587999647018
aF-122.34978931239476
aF47.6163874946998
asI35826
(lp460
F-122.3281203066369
aF47.61098625933361
aF-122.32710229081823
aF47.61141224274111
asI83222
(lp461
F-122.34971097945778
aF47.650406210799275
aF-122.34963321678457
aF47.65043042067696
asI88773
(lp462
F-122.32627602970335
aF47.6001086944847
aF-122.32505610189952
aF47.600106805350954
asI35526
(lp463
F-122.33689646974273
aF47.61361794545173
aF-122.33616173969608
aF47.614186705668395
asI17618
(lp464
F-122.31102595854881
aF47.68672548187546
aF-122.31005784658254
aF47.686725079022374
asI35529
(lp465
F-122.33189943184482
aF47.61771536054736
aF-122.33115465845337
aF47.61829116428634
asI35530
(lp466
F-122.33172506911605
aF47.6176086288843
aF-122.33097763549881
aF47.618186487939056
asI57913
(lp467
F-122.31744433633037
aF47.67501626409118
aF-122.31744439818208
aF47.67573777059153
asI58829
(lp468
F-122.338601671255
aF47.618596260712344
aF-122.33859352045747
aF47.61963885419367
asI80593
(lp469
F-122.31744449827418
aF47.67421149051741
aF-122.31744434902863
aF47.67490559722523
asI80594
(lp470
F-122.3172821375564
aF47.67420874162443
aF-122.31728198614269
aF47.67490284833216
asI35525
(lp471
F-122.33703504940738
aF47.613710696652014
aF-122.3362856781304
aF47.614290791693634
asI80222
(lp472
F-122.32860384630126
aF47.614882379715105
aF-122.3278895784847
aF47.61516176118075
asI80597
(lp473
F-122.31744519274736
aF47.675886276806885
aF-122.31745390632041
aF47.67651832212255
asI81245
(lp474
F-122.33414817957417
aF47.626029362201834
aF-122.3325723291072
aF47.626029763775044
asI34937
(lp475
F-122.35680459233917
aF47.62332915845617
aF-122.35679500248357
aF47.62450661962009
asI33734
(lp476
F-122.33237500237068
aF47.60229822811008
aF-122.33142574021358
aF47.602694347202615
asI2781
(lp477
F-122.35268470014046
aF47.630000896156076
aF-122.3527077678426
aF47.63095796376595
asI82654
(lp478
F-122.32080449169626
aF47.62499989056461
aF-122.32021825866305
aF47.625362030365
asI13093
(lp479
F-122.28174710372286
aF47.57157967254281
aF-122.28225562755051
aF47.570955721681734
asI58081
(lp480
F-122.333098041208
aF47.60805606043012
aF-122.3321508333513
aF47.60845263516767
asI2786
(lp481
F-122.35324623956025
aF47.63489831912564
aF-122.35323722091677
aF47.635674683254855
asI79654
(lp482
F-122.33102222529715
aF47.60582327745204
aF-122.33000795107735
aF47.60624751335837
asI2790
(lp483
F-122.3531012836645
aF47.638297635665985
aF-122.35309225867283
aF47.63907413435351
asI77265
(lp484
F-122.33599731788216
aF47.61859278371934
aF-122.33598845108881
aF47.619660138817856
asI2793
(lp485
F-122.35336018635668
aF47.64145616313175
aF-122.35348711804536
aF47.64198442740137
asI32554
(lp486
F-122.32709900433514
aF47.6064912259203
aF-122.32608130175706
aF47.60691677968053
asI2797
(lp487
F-122.32679650790834
aF47.65370488119234
aF-122.32678978015532
aF47.65417148909047
asI2798
(lp488
F-122.32678648192712
aF47.6545092596639
aF-122.32677238169278
aF47.65550430905171
asI53422
(lp489
F-122.33422827662307
aF47.612672575257534
aF-122.33505563026155
aF47.61357699153767
asI82673
(lp490
F-122.319276755113
aF47.612238143956404
aF-122.31839799525504
aF47.61224243781183
asI82674
(lp491
F-122.3192674323243
aF47.61212030228353
aF-122.31874340244725
aF47.6121228637353
asI17617
(lp492
F-122.31204966874216
aF47.68672035881723
aF-122.31111908808802
aF47.68672003477798
asI46409
(lp493
F-122.33432494225474
aF47.598245219332405
aF-122.3343260083228
aF47.596496077363774
asI81705
(lp494
F-122.33191456889959
aF47.601776208567145
aF-122.33030504373775
aF47.60177379509833
asI41721
(lp495
F-122.38481415187506
aF47.66876070207565
aF-122.38632734483848
aF47.66876217425472
asI41722
(lp496
F-122.38481652805326
aF47.66859621493224
aF-122.38605863684896
aF47.66859742490566
asI12846
(lp497
F-122.33344502242413
aF47.6067825702793
aF-122.33250276295183
aF47.60717704861629
asI79658
(lp498
F-122.32878861916161
aF47.60674772987624
aF-122.32777069938467
aF47.60717361566219
asI41726
(lp499
F-122.38767306736578
aF47.66860428679887
aF-122.39014024345819
aF47.66859440940808
asI54741
(lp500
F-122.32143113366864
aF47.62514951730302
aF-122.32140170839438
aF47.6267947607159
asI31489
(lp501
F-122.34397696627074
aF47.60850676257759
aF-122.34507556761778
aF47.6091628380535
asI13058
(lp502
F-122.37249376572343
aF47.54459873942818
aF-122.37236231256244
aF47.544584507971855
asI31493
(lp503
F-122.34638564895513
aF47.609927756747915
aF-122.34755025137434
aF47.61061186509365
asI31494
(lp504
F-122.34621815642065
aF47.61005814503041
aF-122.34738275955603
aF47.610742255088304
asI54514
(lp505
F-122.3459470818446
aF47.61195107016292
aF-122.34515979844089
aF47.61256034347861
asI27402
(lp506
F-122.33023220074645
aF47.59964578325658
aF-122.33019510314928
aF47.59920452926367
asI37185
(lp507
F-122.32068720581373
aF47.61533205907995
aF-122.32002169581541
aF47.61533677444436
asI32425
(lp508
F-122.35150270044997
aF47.61523317770424
aF-122.35071471935184
aF47.61584188838574
asI80654
(lp509
F-122.34218494874833
aF47.625339642816485
aF-122.34140101320759
aF47.625336603916786
asI10869
(lp510
F-122.34223122312781
aF47.63393319390652
aF-122.34115679496507
aF47.633933326695754
asI56082
(lp511
F-122.33036815006525
aF47.621922630882324
aF-122.32924985207431
aF47.62192585129148
asI56085
(lp512
F-122.3209149824109
aF47.6113039676716
aF-122.32143225718592
aF47.61187179300759
asI54038
(lp513
F-122.3226797674221
aF47.603396883954666
aF-122.32166667872696
aF47.603820444311644
asI69081
(lp514
F-122.3342865035861
aF47.599981512442426
aF-122.3342891296033
aF47.59926788682642
asI36094
(lp515
F-122.33544530415108
aF47.6017951060313
aF-122.33538652466562
aF47.60220535132618
asI13082
(lp516
F-122.34631280465264
aF47.628942633569324
aF-122.34630438159184
aF47.62969697727064
asI13085
(lp517
F-122.34616953035768
aF47.63170400800788
aF-122.34602752281167
aF47.63185488283141
asI13086
(lp518
F-122.345873618547
aF47.63233566857803
aF-122.34586525450491
aF47.63311159891916
asI11397
(lp519
F-122.34858689650916
aF47.660083413206394
aF-122.34858051635221
aF47.66072256409432
asI91545
(lp520
F-122.35680968376806
aF47.622163497373535
aF-122.35794165271666
aF47.62216785370012
asI76201
(lp521
F-122.34117515506993
aF47.62211738223867
aF-122.34116512851891
aF47.62321120235049
asI36102
(lp522
F-122.33861685031874
aF47.605720789058985
aF-122.3392102305124
aF47.60636911478152
asI43058
(lp523
F-122.32758591336318
aF47.598298174436586
aF-122.3264571362196
aF47.59829639587715
asI11398
(lp524
F-122.34857818538043
aF47.660795180377285
aF-122.34854701933027
aF47.66135198666446
asI35693
(lp525
F-122.34644558991818
aF47.618621123539924
aF-122.34643643345207
aF47.6196722125008
asI13097
(lp526
F-122.3223276255525
aF47.60465312594494
aF-122.32130782600956
aF47.605079276534894
asI13098
(lp527
F-122.32120963410395
aF47.605105118994814
aF-122.32088816287356
aF47.6052462932684
asI43946
(lp528
F-122.322367339195
aF47.597440027542106
aF-122.32165338359339
aF47.59743840108856
asI13101
(lp529
F-122.33502099690907
aF47.61702534037808
aF-122.33619643775849
aF47.61772022937806
asI13102
(lp530
F-122.33486086707236
aF47.61714917119725
aF-122.33607894186233
aF47.61786926485897
asI69085
(lp531
F-122.33430982808376
aF47.599150351271284
aF-122.33431273017884
aF47.598338391082564
asI13105
(lp532
F-122.32425329826681
aF47.60679283122034
aF-122.32484814632201
aF47.60744365915444
asI58198
(lp533
F-122.32458808241023
aF47.61048425886867
aF-122.32357022508972
aF47.61090996899148
asI13109
(lp534
F-122.32767056331383
aF47.610307257303496
aF-122.32826571771608
aF47.61095776921755
asI13110
(lp535
F-122.32817753691154
aF47.6110750081983
aF-122.32902840765283
aF47.612004728795625
asI9353
(lp536
F-122.30299177746022
aF47.63587987333246
aF-122.30532749885893
aF47.63697542209291
asI13189
(lp537
F-122.32114594900337
aF47.651572843896474
aF-122.32047921540584
aF47.652438285601654
asI54073
(lp538
F-122.33230992593955
aF47.62698424406694
aF-122.33219734782175
aF47.62694638977123
asI54074
(lp539
F-122.3323821677663
aF47.626886059725564
aF-122.33225836850485
aF47.62684443215718
asI64317
(lp540
F-122.37894671860663
aF47.66875336996459
aF-122.38035255058288
aF47.66875544628372
asI13121
(lp541
F-122.33727278095222
aF47.62208339827422
aF-122.33726436263534
aF47.62316391822487
asI31541
(lp542
F-122.32168324894256
aF47.603942439269716
aF-122.320834898279
aF47.60429713851483
asI76193
(lp543
F-122.33672742804953
aF47.615693815328854
aF-122.33792853123293
aF47.61640518778039
asI64321
(lp544
F-122.38636792764454
aF47.66876221343919
aF-122.38751989738132
aF47.668762532438436
asI64322
(lp545
F-122.38636780577613
aF47.66859772427767
aF-122.38757227306117
aF47.66859656305418
asI58181
(lp546
F-122.33019990577759
aF47.60827249244137
aF-122.32920923331305
aF47.608686751287635
asI60230
(lp547
F-122.31981375191417
aF47.612876880625535
aF-122.31950002966036
aF47.61287467709843
asI9697
(lp548
F-122.2666239342897
aF47.52822140113921
aF-122.26637600179721
aF47.528372154885815
asI58185
(lp549
F-122.32913089505978
aF47.60873884654267
aF-122.32811329609896
aF47.60916431582832
asI13130
(lp550
F-122.35666122465095
aF47.62100100578509
aF-122.35551407345714
aF47.62099634664872
asI59949
(lp551
F-122.32615213305789
aF47.61414819257158
aF-122.32558749909343
aF47.614151177712266
asI13794
(lp552
F-122.29580629822728
aF47.604253652624436
aF-122.29497910387174
aF47.60423267549732
asI13134
(lp553
F-122.34619195703304
aF47.62082833211734
aF-122.34509715919762
aF47.62082441326968
asI9357
(lp554
F-122.30734187074624
aF47.63792349125694
aF-122.30866956636768
aF47.63854614216604
asI76625
(lp555
F-122.35227183662064
aF47.61325818467145
aF-122.35398062386021
aF47.61427237632192
asI13138
(lp556
F-122.34101510416353
aF47.620960456169925
aF-122.33985324491518
aF47.62095601745857
asI1233
(lp557
F-122.30033754138067
aF47.717908119518064
aF-122.30081416378796
aF47.71836692322935
asI56149
(lp558
F-122.32201469486007
aF47.614132579240724
aF-122.32203247550487
aF47.61521860093926
asI56150
(lp559
F-122.3222092916071
aF47.61413112243247
aF-122.32222707631273
aF47.61521714410064
asI47961
(lp560
F-122.33397077155368
aF47.603731095878445
aF-122.3345447759858
aF47.60435875481347
asI47962
(lp561
F-122.33376154103958
aF47.603820224264666
aF-122.33431428399653
aF47.60442463748125
asI47966
(lp562
F-122.33573885108967
aF47.60596122834832
aF-122.33629142594961
aF47.606565219375454
asI69306
(lp563
F-122.31648804985781
aF47.66135365011374
aF-122.31646627201184
aF47.662046583317945
asI33990
(lp564
F-122.34119150622314
aF47.61384907265008
aF-122.3404783873652
aF47.61440032964572
asI11105
(lp565
F-122.32866138832371
aF47.66647798359834
aF-122.32935555127182
aF47.66753551244985
asI47970
(lp566
F-122.33882053333501
aF47.609371404545485
aF-122.33962926719819
aF47.61025526435933
asI59058
(lp567
F-122.33388890577503
aF47.60165606838661
aF-122.33297275085376
aF47.60165502060477
asI13798
(lp568
F-122.29154074200237
aF47.6045410277551
aF-122.2905764122888
aF47.60453256678884
asI80742
(lp569
F-122.32749970675675
aF47.61024030871177
aF-122.32648168882054
aF47.61066597172572
asI31889
(lp570
F-122.34782108513292
aF47.614250445000536
aF-122.34708122740615
aF47.6148225752897
asI31593
(lp571
F-122.34092408370768
aF47.62720190554124
aF-122.33989712915869
aF47.62721144061352
asI80746
(lp572
F-122.32522045819626
aF47.61119346518041
aF-122.32420241232374
aF47.611619334579856
asI78701
(lp573
F-122.3383420560675
aF47.62211484219826
aF-122.3372356959884
aF47.62211079179931
asI2926
(lp574
F-122.33144398349827
aF47.59998347148379
aF-122.33144763660424
aF47.59926868733192
asI69437
(lp575
F-122.31688546407666
aF47.60742703096459
aF-122.316885330973
aF47.60799041800358
asI54722
(lp576
F-122.32063847866884
aF47.61128951559018
aF-122.32064069089355
aF47.612919676572936
asI58225
(lp577
F-122.33272222145665
aF47.61704175450453
aF-122.33198237619624
aF47.61761375546395
asI58226
(lp578
F-122.33257572185097
aF47.61695512673187
aF-122.33183853749958
aF47.61752506936723
asI10054
(lp579
F-122.33729733008845
aF47.71720160100791
aF-122.3385366415009
aF47.71950059428415
asI79678
(lp580
F-122.32497378287378
aF47.598286153753946
aF-122.32497689340391
aF47.59752101642218
asI11126
(lp581
F-122.32290410315058
aF47.60527889546121
aF-122.3219155849302
aF47.6056924484099
asI81114
(lp582
F-122.33616205240557
aF47.61790011581035
aF-122.33705555177889
aF47.61847756641301
asI11129
(lp583
F-122.33172690475016
aF47.669083572565064
aF-122.33240062033161
aF47.67010995127633
asI11130
(lp584
F-122.31523687606256
aF47.635973173113705
aF-122.31478127427759
aF47.63597548683828
asI57382
(lp585
F-122.33395411394103
aF47.61403344708284
aF-122.33294677572606
aF47.614454844181466
asI24042
(lp586
F-122.34649919077762
aF47.61346893412243
aF-122.34771739835767
aF47.61418910028999
asI11134
(lp587
F-122.35462335094253
aF47.574369509056375
aF-122.35453903594589
aF47.57417106821955
asI31893
(lp588
F-122.34610084368883
aF47.61557202493798
aF-122.34531385629775
aF47.616180742716345
asI86450
(lp589
F-122.38482387361387
aF47.66937748646524
aF-122.38755912396736
aF47.66938096614789
asI13185
(lp590
F-122.33241662369866
aF47.61067935191461
aF-122.33189560835991
aF47.61093198707542
asI11138
(lp591
F-122.34108707668749
aF47.6196379120621
aF-122.33995661202732
aF47.61963429360845
asI11141
(lp592
F-122.33579637413237
aF47.6197762026159
aF-122.33441728102376
aF47.61975004732287
asI43910
(lp593
F-122.32756702146295
aF47.6008018805109
aF-122.3263703830185
aF47.600799665496034
asI69441
(lp594
F-122.31692461204942
aF47.611570435597855
aF-122.3168816497643
aF47.61282314551348
asI33673
(lp595
F-122.33315861796346
aF47.614936048077915
aF-122.3324232691165
aF47.61550665643136
asI43914
(lp596
F-122.32628157286655
aF47.60079949831898
aF-122.32505469139043
aF47.60079717392039
asI78114
(lp597
F-122.34315861138207
aF47.608885005035624
aF-122.34354750952852
aF47.60926551014299
asI13197
(lp598
F-122.27562406453208
aF47.67188544914778
aF-122.2756263125567
aF47.67182097544955
asI13198
(lp599
F-122.32476773504062
aF47.61237272407755
aF-122.3237495724724
aF47.61279853970193
asI54765
(lp600
F-122.31449228502065
aF47.65689580182859
aF-122.31445776449156
aF47.65820932655625
asI35822
(lp601
F-122.3292353139197
aF47.610526617607654
aF-122.32823121080324
aF47.61094632689698
asI35729
(lp602
F-122.3324196147545
aF47.615484529478906
aF-122.33360978150334
aF47.616226508184155
asI57549
(lp603
F-122.33182003846721
aF47.62315761404252
aF-122.3318266987922
aF47.62424439643622
asI45973
(lp604
F-122.35809196833998
aF47.624659140502
aF-122.35920771990773
aF47.62466307168618
asI45974
(lp605
F-122.35808500488058
aF47.62451381493099
aF-122.35920075333632
aF47.62451774635882
asI34509
(lp606
F-122.33309489444237
aF47.62203063494263
aF-122.33310115522457
aF47.62309933564688
asI13209
(lp607
F-122.32707451595337
aF47.61156892626683
aF-122.3260572749128
aF47.61199437904171
asI13210
(lp608
F-122.28821912861459
aF47.65849677497058
aF-122.28729280088127
aF47.6584934870676
asI58406
(lp609
F-122.32296032786816
aF47.60536155749849
aF-122.32355491927646
aF47.60601265767651
asI13213
(lp610
F-122.31357775389132
aF47.65138105068389
aF-122.31344844306764
aF47.651488390086556
asI13214
(lp611
F-122.31340965200721
aF47.65280578154458
aF-122.31338874029825
aF47.65336216329045
asI13125
(lp612
F-122.32628185821187
aF47.65777892516381
aF-122.3262659898453
aF47.658871988745055
asI35745
(lp613
F-122.33835979852837
aF47.62094220903776
aF-122.3371645391563
aF47.62093752490499
asI87253
(lp614
F-122.38219041576536
aF47.66875810483407
aF-122.38310748600095
aF47.668759017061014
asI7262
(lp615
F-122.34769272076664
aF47.62213820714209
aF-122.34768446215878
aF47.62317746599189
asI43941
(lp616
F-122.32759427553076
aF47.59758514167195
aF-122.32639519721003
aF47.597583729629406
asI43942
(lp617
F-122.32759462668629
aF47.597448067232925
aF-122.3263955515231
aF47.59744665519409
asI13809
(lp618
F-122.32349850928011
aF47.62681820419595
aF-122.32241112444797
aF47.62680949089215
asI54985
(lp619
F-122.34983494095259
aF47.617784702244705
aF-122.34912230916193
aF47.618335840292744
asI43945
(lp620
F-122.32235859030243
aF47.597577082896336
aF-122.3216527002485
aF47.59757547473655
asI2986
(lp621
F-122.30676473692846
aF47.69670399370906
aF-122.30675980998603
aF47.69757794672061
asI24570
(lp622
F-122.3167152624975
aF47.61417031761234
aF-122.3167315487622
aF47.6152018784753
asI76718
(lp623
F-122.34221789811893
aF47.62706946422275
aF-122.3411012974097
aF47.6270655339796
asI76721
(lp624
F-122.33084868160543
aF47.626917115929736
aF-122.32930239714238
aF47.62693108529237
asI76722
(lp625
F-122.33080614232746
aF47.62681331468834
aF-122.32930843514077
aF47.62682684495736
asI9141
(lp626
F-122.30127047664465
aF47.54857976119221
aF-122.30110796376987
aF47.548082905560165
asI56246
(lp627
F-122.33017177976876
aF47.61152351219814
aF-122.3300429433927
aF47.61168640696037
asI35945
(lp628
F-122.3461589818342
aF47.616787189864674
aF-122.34544368578206
aF47.61734113779828
asI9145
(lp629
F-122.30011954255296
aF47.54453219779746
aF-122.30005140852754
aF47.54430898509375
asI9146
(lp630
F-122.29994217734976
aF47.544249177103666
aF-122.29975058637133
aF47.5436224829975
asI13057
(lp631
F-122.39925488664596
aF47.69376175803644
aF-122.39898957112861
aF47.694515422121455
asI58186
(lp632
F-122.32903626557098
aF47.608630146959854
aF-122.32801866796193
aF47.609055615400315
asI37822
(lp633
F-122.35122578827638
aF47.65065750431778
aF-122.35035593519801
aF47.65052634987808
asI87254
(lp634
F-122.3821867360096
aF47.66859361175186
aF-122.38305936404662
aF47.66859447997115
asI80833
(lp635
F-122.33684772151582
aF47.605490851676706
aF-122.3358312624836
aF47.60591636432838
asI80837
(lp636
F-122.33132656196554
aF47.60782699475991
aF-122.33030124552907
aF47.60825588540365
asI68550
(lp637
F-122.35682013066322
aF47.61971328888085
aF-122.35801683329063
aF47.619718857247854
asI80841
(lp638
F-122.32354597238363
aF47.61105225501887
aF-122.32252950481163
aF47.61147723822569
asI9349
(lp639
F-122.29963717529597
aF47.633962533950175
aF-122.3000905669448
aF47.63424382745397
asI60182
(lp640
F-122.32217371179733
aF47.62102557916959
aF-122.32094960570622
aF47.621034333220265
asI33741
(lp641
F-122.34749911548344
aF47.61981023175884
aF-122.34641664573412
aF47.61980633015929
asI33742
(lp642
F-122.34750427714432
aF47.61966769089483
aF-122.3464218101006
aF47.61966378934787
asI13133
(lp643
F-122.34730487453773
aF47.620837716839404
aF-122.34640803453915
aF47.620834579627854
asI33745
(lp644
F-122.33163625228971
aF47.61973403905979
aF-122.33044609868544
aF47.61973692323262
asI35794
(lp645
F-122.3378474494391
aF47.60828628974057
aF-122.33691207673697
aF47.60867707623818
asI68910
(lp646
F-122.33813928449756
aF47.60690738726981
aF-122.33897102296474
aF47.607816813092406
asI13126
(lp647
F-122.32626355167419
aF47.659038787934236
aF-122.32624744039111
aF47.66013321537158
asI76622
(lp648
F-122.344913245234
aF47.609292655747325
aF-122.34607713757995
aF47.60997219210116
asI35798
(lp649
F-122.33563473064645
aF47.60920253347157
aF-122.33468654839857
aF47.609599283243085
asI49657
(lp650
F-122.34622126641825
aF47.61545784051447
aF-122.34703736518406
aF47.61594017072826
asI33994
(lp651
F-122.33601112679285
aF47.61780363919596
aF-122.33528827447196
aF47.618397269969314
asI79354
(lp652
F-122.34293754343263
aF47.612499255573866
aF-122.34219478209687
aF47.613073606577984
asI53430
(lp653
F-122.33800044154462
aF47.61548933584783
aF-122.33867009192457
aF47.61588554957066
asI58337
(lp654
F-122.32555779151208
aF47.61301416590937
aF-122.32557508173001
aF47.613035217834
asI46082
(lp655
F-122.35808305026046
aF47.62324044186568
aF-122.35927981041168
aF47.62324440891398
asI31062
(lp656
F-122.33828800984188
aF47.616821445907526
aF-122.33905621475543
aF47.61727519883207
asI46246
(lp657
F-122.33906460954142
aF47.60791913506115
aF-122.33989826757113
aF47.60883055723911
asI32426
(lp658
F-122.35133185443712
aF47.615132062295736
aF-122.3505944534113
aF47.61570169928633
asI1001
(lp659
F-122.37671482604574
aF47.701811303688736
aF-122.37670527650454
aF47.70332978958922
asI1002
(lp660
F-122.38283185906654
aF47.59081014266097
aF-122.38270807966444
aF47.59054506656441
asI32017
(lp661
F-122.34822996763889
aF47.61213874503916
aF-122.34744224347459
aF47.61274803049978
asI1005
(lp662
F-122.36109361318833
aF47.54647310417419
aF-122.36114547108699
aF47.54371987496359
asI1006
(lp663
F-122.29742659399385
aF47.69936463212565
aF-122.2933444606923
aF47.699341744778934
asI8626
(lp664
F-122.36898422405842
aF47.630058444699465
aF-122.36901125672142
aF47.63018926980372
asI88633
(lp665
F-122.32627883723241
aF47.59841126628411
aF-122.32511501973981
aF47.59840955025521
asI1009
(lp666
F-122.34021371438183
aF47.60890442303783
aF-122.34097763541469
aF47.60973951311915
asI1010
(lp667
F-122.24373981474163
aF47.510455026767694
aF-122.24375548253455
aF47.50969607660226
asI12950
(lp668
F-122.34228103596689
aF47.728708637309936
aF-122.34229914779618
aF47.73045377196312
asI13301
(lp669
F-122.35056714592389
aF47.61468159149155
aF-122.34977928102751
aF47.615290382216166
asI13302
(lp670
F-122.34247614226638
aF47.61108203932181
aF-122.34168813781076
aF47.611691328717036
asI36009
(lp671
F-122.35425929597268
aF47.61979683875583
aF-122.35425050617401
aF47.620871361094714
asI57386
(lp672
F-122.33060457039771
aF47.615437577844574
aF-122.3296561418441
aF47.61583420897128
asI13305
(lp673
F-122.32395756898975
aF47.66312175267197
aF-122.32293858588886
aF47.66311654633272
asI1018
(lp674
F-122.34131333168921
aF47.61037733033313
aF-122.3413479621409
aF47.61041520573358
asI74026
(lp675
F-122.34003126474262
aF47.61316358799594
aF-122.34119143938732
aF47.613849381343435
asI80893
(lp676
F-122.3344763152447
aF47.61568550137827
aF-122.33370224631426
aF47.616283944299994
asI1022
(lp677
F-122.37161786846124
aF47.51123259718518
aF-122.3715296035473
aF47.51003709217094
asI58197
(lp678
F-122.32467118302766
aF47.610588110524816
aF-122.32365332542851
aF47.61101382260425
asI1025
(lp679
F-122.38863728962387
aF47.51062384275677
aF-122.38850220184204
aF47.51051315327748
asI1026
(lp680
F-122.32309141223996
aF47.67592760025144
aF-122.32530035579047
aF47.67830952259391
asI78118
(lp681
F-122.35045083323324
aF47.613467507499315
aF-122.35124401479762
aF47.613936372734244
asI1029
(lp682
F-122.35550339645171
aF47.62332653300442
aF-122.35549373964703
aF47.62450477057521
asI1030
(lp683
F-122.25818391463706
aF47.50838189468009
aF-122.25765586861219
aF47.508033795823465
asI34305
(lp684
F-122.32558171610718
aF47.608214671789185
aF-122.32456370843718
aF47.60864073708495
asI3081
(lp685
F-122.35905453165518
aF47.52824865935262
aF-122.35906162484554
aF47.5265287122746
asI35850
(lp686
F-122.31301363114731
aF47.663148652035325
aF-122.31298858150726
aF47.66479065083828
asI34306
(lp687
F-122.32551771410387
aF47.60814473740654
aF-122.32449970727788
aF47.608570802130394
asI58382
(lp688
F-122.34614350131748
aF47.61978737760053
aF-122.34613475698028
aF47.62083782462112
asI36013
(lp689
F-122.35417933678487
aF47.624605887345744
aF-122.35417299314594
aF47.62538482137962
asI1041
(lp690
F-122.4101154419868
aF47.668451523186995
aF-122.41006464466605
aF47.668566165628214
asI66578
(lp691
F-122.33101359289718
aF47.60082611081257
aF-122.33027230560856
aF47.60082503311204
asI58410
(lp692
F-122.32361362385065
aF47.60609258055356
aF-122.32420866922847
aF47.60674399236873
asI37133
(lp693
F-122.32331829156159
aF47.61413456819573
aF-122.32321364159861
aF47.614125627746795
asI1045
(lp694
F-122.30639705919162
aF47.60436815090406
aF-122.30639169956204
aF47.60512754508411
asI1046
(lp695
F-122.25478814584945
aF47.506502549384365
aF-122.25463510850733
aF47.50635288092674
asI58393
(lp696
F-122.32906917610283
aF47.60180274042069
aF-122.32901229177605
aF47.601867335030505
asI19482
(lp697
F-122.28712878197376
aF47.51970138452904
aF-122.28601672092066
aF47.51970587887362
asI57018
(lp698
F-122.32498931105255
aF47.59745548032784
aF-122.32499231420141
aF47.59669060709472
asI19485
(lp699
F-122.33416276426178
aF47.554888401433296
aF-122.33242955414255
aF47.55487838506763
asI56350
(lp700
F-122.34345349364034
aF47.61965007973047
aF-122.34254167730667
aF47.61964622641065
asI79365
(lp701
F-122.337095614542
aF47.61723299091114
aF-122.33627416361401
aF47.61786817709583
asI13345
(lp702
F-122.2901251447127
aF47.66664876376259
aF-122.28912162866506
aF47.666652865630226
asI13346
(lp703
F-122.34860884048072
aF47.6147145750459
aF-122.3478642204452
aF47.61529121847638
asI13349
(lp704
F-122.26756204301083
aF47.52765741101685
aF-122.26655237312352
aF47.52689949152093
asI123942
(lp705
F-122.33147969409566
aF47.61278771714033
aF-122.33211591905805
aF47.613494244410084
asI79025
(lp706
F-122.33968478060383
aF47.619778663825436
aF-122.33849101878673
aF47.61977407576029
asI13353
(lp707
F-122.35034559115378
aF47.61337224290874
aF-122.3495579719145
aF47.613980971162945
asI56362
(lp708
F-122.33642682564997
aF47.61965631240401
aF-122.33591117755155
aF47.619654306233805
asI81105
(lp709
F-122.32294465891214
aF47.60439529191385
aF-122.32245795258603
aF47.60459866393884
asI58413
(lp710
F-122.32569444924708
aF47.6081609738876
aF-122.32628889349607
aF47.60881202217761
asI35886
(lp711
F-122.3384134098863
aF47.6256440132257
aF-122.33736164251822
aF47.62563970795336
asI35429
(lp712
F-122.32973695158488
aF47.60946892488468
aF-122.32872246252093
aF47.609893124730675
asI35889
(lp713
F-122.33249770708869
aF47.626014510455825
aF-122.33084696902003
aF47.626042008755704
asI35890
(lp714
F-122.33249370948069
aF47.62590488433254
aF-122.33084297488824
aF47.62593238257456
asI31542
(lp715
F-122.3216014222474
aF47.603847728750914
aF-122.32075307256997
aF47.604202427386674
asI11766
(lp716
F-122.34878344768187
aF47.62463814881202
aF-122.3476676880839
aF47.62463571095029
asI80949
(lp717
F-122.32560823769892
aF47.61415089873653
aF-122.32562194679734
aF47.61520724916006
asI80950
(lp718
F-122.32541352983995
aF47.614143843382756
aF-122.32542723498386
aF47.61520019382991
asI32265
(lp719
F-122.32101216365483
aF47.622022874845456
aF-122.32102907942439
aF47.62308985639832
asI80953
(lp720
F-122.32563904922965
aF47.61527686081133
aF-122.32565232241272
aF47.61632607069707
asI80954
(lp721
F-122.325424120078
aF47.61527400504053
aF-122.32543738892163
aF47.616323214776024
asI9277
(lp722
F-122.35309688379894
aF47.725506485337434
aF-122.3540744776415
aF47.726353786140734
asI9278
(lp723
F-122.34723570809908
aF47.61272034457206
aF-122.34644807687746
aF47.6133295509128
asI8373
(lp724
F-122.36606801362261
aF47.66083246762662
aF-122.36608347584645
aF47.66142400055095
asI123744
(lp725
F-122.32440420135616
aF47.598410960791874
aF-122.32391021717714
aF47.598410348152214
asI76058
(lp726
F-122.3413366862398
aF47.61746555229992
aF-122.3421183785088
aF47.61792762489556
asI70725
(lp727
F-122.33219236367677
aF47.601780475184505
aF-122.33262767955755
aF47.60225718355748
asI47969
(lp728
F-122.33904537954028
aF47.609262847176936
aF-122.33989668139004
aF47.610193224106816
asI94732
(lp729
F-122.39615943327271
aF47.66748974152303
aF-122.39817892569434
aF47.667270268550006
asI70730
(lp730
F-122.33441629277051
aF47.604536173052146
aF-122.33496850643496
aF47.60513989603234
asI58445
(lp731
F-122.33968319413677
aF47.62096085940355
aF-122.33857805193232
aF47.620956749397244
asI70734
(lp732
F-122.3350715444647
aF47.6052525437539
aF-122.33562410747173
aF47.605856638364735
asI69133
(lp733
F-122.35813108928177
aF47.61915420043076
aF-122.35812604766149
aF47.619727739340945
asI13578
(lp734
F-122.34453394504173
aF47.6408734523352
aF-122.34384804027401
aF47.64087193869887
asI78929
(lp735
F-122.33410704890716
aF47.61416034878186
aF-122.33402351035117
aF47.61427457294942
asI58450
(lp736
F-122.33708307708783
aF47.620786417563586
aF-122.33592440133724
aF47.620781818824724
asI60234
(lp737
F-122.3180339833134
aF47.61286492047889
aF-122.31675411769186
aF47.61282412739105
asI58453
(lp738
F-122.334200145725
aF47.62090646616906
aF-122.3330359444904
aF47.62088316867789
asI58454
(lp739
F-122.33418629047928
aF47.62076082639941
aF-122.3330625159184
aF47.62073833788143
asI53433
(lp740
F-122.34022864856294
aF47.616551695722855
aF-122.34139995353233
aF47.6172443827431
asI7257
(lp741
F-122.32319557566102
aF47.70961804561375
aF-122.3232054645649
aF47.709958498471615
asI70746
(lp742
F-122.34174048056701
aF47.61182971590355
aF-122.34289738206398
aF47.61251390400246
asI7261
(lp743
F-122.32340625663778
aF47.71589572063593
aF-122.32345662995971
aF47.717635230003715
asI70750
(lp744
F-122.3430140486156
aF47.61257743742776
aF-122.3441716629969
aF47.61326208017496
asI76986
(lp745
F-122.3468114499752
aF47.61479377828653
aF-122.34607399581677
aF47.615363738311586
asI7265
(lp746
F-122.3473982464349
aF47.62545780943198
aF-122.34739132588892
aF47.62624236293915
asI7266
(lp747
F-122.34750423775208
aF47.626316667367455
aF-122.34749753187212
aF47.62712096723468
asI78934
(lp748
F-122.33220073962549
aF47.61549110692916
aF-122.3314363305211
aF47.616077240809474
asI55474
(lp749
F-122.34493973201602
aF47.61113324673947
aF-122.34522758488141
aF47.61121990854093
asI25701
(lp750
F-122.33815460705483
aF47.60829950019493
aF-122.33896296221234
aF47.60918318022562
asI25702
(lp751
F-122.3379280943255
aF47.60837496645499
aF-122.33873644680388
aF47.60925864791785
asI58473
(lp752
F-122.33685472385817
aF47.60884292663152
aF-122.33590678952197
aF47.60924016504793
asI35946
(lp753
F-122.34603203201725
aF47.61671043267997
aF-122.34531407652986
aF47.617266439062895
asI20834
(lp754
F-122.28337328588917
aF47.5505059992336
aF-122.28084309183183
aF47.550477606579854
asI25709
(lp755
F-122.3444486803646
aF47.613218306988784
aF-122.34560564457439
aF47.613902302274354
asI25710
(lp756
F-122.34431863665478
aF47.613356274125394
aF-122.34547559866715
aF47.614040273410374
asI76989
(lp757
F-122.34439845327785
aF47.616917649752956
aF-122.34368740867056
aF47.61746769303023
asI25713
(lp758
F-122.34574438967803
aF47.61399146915434
aF-122.34690977455489
aF47.61466986479604
asI25714
(lp759
F-122.34560392542855
aF47.61411227935395
aF-122.34676931092038
aF47.61479067643557
asI74030
(lp760
F-122.34131629295952
aF47.61393776011667
aF-122.34247404040694
aF47.61462230543693
asI80645
(lp761
F-122.35010931298793
aF47.62549285598532
aF-122.34899448640233
aF47.625488667944325
asI18622
(lp762
F-122.37469918820726
aF47.63155910253615
aF-122.37451019624005
aF47.631663580845895
asI25718
(lp763
F-122.34878171035143
aF47.61599166668974
aF-122.34963941838491
aF47.61649916604419
asI117879
(lp764
F-122.31732177644595
aF47.653591748514856
aF-122.31744771320336
aF47.65336555622857
asI58490
(lp765
F-122.33986845129695
aF47.6060775744073
aF-122.33936444268998
aF47.60628834790482
asI78122
(lp766
F-122.35229745495404
aF47.61454798804109
aF-122.35308717357103
aF47.615015689367816
asI58493
(lp767
F-122.33814388125309
aF47.60691200360497
aF-122.33721927262846
aF47.60729847628017
asI58494
(lp768
F-122.33807141671062
aF47.60683271546253
aF-122.33715712070484
aF47.60721487743383
asI9722
(lp769
F-122.30444242457452
aF47.55497474118824
aF-122.30435175667073
aF47.55481192256009
asI58498
(lp770
F-122.33693673973693
aF47.6072908544015
aF-122.33598739904706
aF47.607687438240916
asI66617
(lp771
F-122.32497124127055
aF47.59758682443264
aF-122.32448862278017
aF47.597585903225855
asI35841
(lp772
F-122.31334629254728
aF47.656260037336054
aF-122.31333442381538
aF47.65671256743404
asI13445
(lp773
F-122.35437746182946
aF47.633200150437695
aF-122.35436844776417
aF47.63397588854094
asI58502
(lp774
F-122.33365489956981
aF47.60866434047821
aF-122.33267226519658
aF47.60907585350956
asI79041
(lp775
F-122.33036169928998
aF47.61973087896152
aF-122.3292204956902
aF47.61977234721839
asI54409
(lp776
F-122.34049940216453
aF47.618131776497805
aF-122.34004206627017
aF47.61848606606166
asI9354
(lp777
F-122.30533862064485
aF47.63709409303359
aF-122.3059329343549
aF47.6373728305836
asI58414
(lp778
F-122.32554135237638
aF47.60822811287729
aF-122.32613579547701
aF47.608879161966094
asI79042
(lp779
F-122.33035844728357
aF47.61958823396717
aF-122.32939467737145
aF47.61962325558723
asI9358
(lp780
F-122.30876396810554
aF47.63858373926718
aF-122.31028563629529
aF47.63929731495172
asI2925
(lp781
F-122.37953056077498
aF47.51195294399874
aF-122.37927278917738
aF47.5100470931574
asI58513
(lp782
F-122.31333012952662
aF47.65687629398811
aF-122.31329567061843
aF47.658189975472
asI58514
(lp783
F-122.31315958997261
aF47.65687972737879
aF-122.31312512675315
aF47.65819340881091
asI78702
(lp784
F-122.33834324031865
aF47.621966803801364
aF-122.33719650554359
aF47.621962605354824
asI31894
(lp785
F-122.34594821704215
aF47.61548180890672
aF-122.34516122923013
aF47.61609052563097
asI85149
(lp786
F-122.31865791426227
aF47.67505421634781
aF-122.31744338748966
aF47.67504830223868
asI85150
(lp787
F-122.31865937569567
aF47.67491714563904
aF-122.31744485212583
aF47.67491123154544
asI94421
(lp788
F-122.34250485900154
aF47.608282107948874
aF-122.34217657980041
aF47.608414276485085
asI46245
(lp789
F-122.33922261935368
aF47.60782089213476
aF-122.34005202512813
aF47.608727663042174
asI12282
(lp790
F-122.35667475390404
aF47.618661509361914
aF-122.35666625460286
aF47.61969904354676
asI78705
(lp791
F-122.33579525966411
aF47.62211253839194
aF-122.33446877802712
aF47.62208598406218
asI65802
(lp792
F-122.33546667712817
aF47.59998316958391
aF-122.33430643597883
aF47.59998136353045
asI81065
(lp793
F-122.34643524935494
aF47.61812122009498
aF-122.34647714441846
aF47.61851134437738
asI36010
(lp794
F-122.35401590057384
aF47.61980959978362
aF-122.35400723982559
aF47.620867717127716
asI80741
(lp795
F-122.32755685477453
aF47.61038079714233
aF-122.32653884125928
aF47.610806468124274
asI117932
(lp796
F-122.3175574371319
aF47.65360463117238
aF-122.31767678511451
aF47.65338640143523
asI79021
(lp797
F-122.34488101883616
aF47.61981171384303
aF-122.34392473799453
aF47.61980821046236
asI36014
(lp798
F-122.35401713276283
aF47.624605283631126
aF-122.35401078669544
aF47.625384217655935
asI8837
(lp799
F-122.27496441635476
aF47.670804065395366
aF-122.27525650187523
aF47.671624491210075
asI9393
(lp800
F-122.32353465505841
aF47.642065123194406
aF-122.32353386594268
aF47.643090999505425
asI79026
(lp801
F-122.33968800070724
aF47.61963611630628
aF-122.3384942421655
aF47.61963152845032
asI58833
(lp802
F-122.33857841098012
aF47.6209346477929
aF-122.33856976476558
aF47.62197879837287
asI79029
(lp803
F-122.33419594909937
aF47.61973319829577
aF-122.33306027007897
aF47.619730686724196
asI79030
(lp804
F-122.334196610588
aF47.6195961244951
aF-122.33303668513605
aF47.61959355921598
asI33993
(lp805
F-122.33620095593857
aF47.617902221411136
aF-122.33549096690086
aF47.61848529064314
asI76985
(lp806
F-122.3469971992933
aF47.61490002839004
aF-122.3462597456637
aF47.615469989617246
asI79034
(lp807
F-122.33289264660132
aF47.61959366300148
aF-122.33232790316242
aF47.6195951537457
asI60006
(lp808
F-122.31942216899571
aF47.615190612527044
aF-122.31822530216122
aF47.61519909320234
asI1213
(lp809
F-122.3342890986914
aF47.571643671028525
aF-122.33428615226836
aF47.57145687416786
asI1214
(lp810
F-122.33432863134433
aF47.571329825797854
aF-122.33433999258563
aF47.56845118151696
asI33518
(lp811
F-122.33295739579704
aF47.62190756114724
aF-122.33178473847963
aF47.62190263807093
asI1217
(lp812
F-122.33407199838241
aF47.557349447391715
aF-122.33407273312683
aF47.55572873336996
asI1218
(lp813
F-122.34793869620096
aF47.52094993818214
aF-122.34792014135739
aF47.51761255078457
asI81125
(lp814
F-122.34353408531243
aF47.620963691909424
aF-122.34252653110659
aF47.620957845818516
asI13509
(lp815
F-122.34748418921035
aF47.61268226054431
aF-122.34867358301797
aF47.61338808188088
asI13510
(lp816
F-122.34867116662318
aF47.61356209033547
aF-122.34948544732275
aF47.61404364409905
asI34490
(lp817
F-122.3318663487957
aF47.617705228960325
aF-122.3330166003708
aF47.61838595955238
asI13513
(lp818
F-122.35158282603793
aF47.61511686426337
aF-122.3524098809489
aF47.61560572021669
asI13514
(lp819
F-122.3524058918047
aF47.615770781159085
aF-122.35320685379166
aF47.61624309460482
asI9762
(lp820
F-122.30972061921021
aF47.54655750273012
aF-122.30912209391896
aF47.5461227655511
asI13518
(lp821
F-122.34201060355784
aF47.60937881215314
aF-122.34347942855668
aF47.610247917225294
asI17613
(lp822
F-122.31623192834972
aF47.686674694424035
aF-122.31500978705552
aF47.68666212736438
asI13521
(lp823
F-122.35948945176409
aF47.61977888066656
aF-122.36003058227087
aF47.620098044445804
asI1234
(lp824
F-122.30359414695049
aF47.71891308555417
aF-122.30364834670291
aF47.71893277612858
asI17614
(lp825
F-122.31489863557441
aF47.68674871376109
aF-122.31435341754518
aF47.686743021472815
asI13526
(lp826
F-122.33733492381117
aF47.61347083823518
aF-122.33743385600698
aF47.613954926964446
asI81113
(lp827
F-122.33633935978251
aF47.617786660374364
aF-122.33737694394289
aF47.6184581820456
asI87258
(lp828
F-122.3831118839708
aF47.668594532003084
aF-122.38463653152891
aF47.66859603850365
asI81194
(lp829
F-122.33344646314373
aF47.610118329879555
aF-122.3324985515321
aF47.61051508355272
asI81117
(lp830
F-122.33724334771158
aF47.62325687031274
aF-122.33723308895817
aF47.62452623362708
asI81118
(lp831
F-122.33702027850264
aF47.62326151759498
aF-122.3370105453389
aF47.624465224399444
asI80889
(lp832
F-122.3353154201096
aF47.615036953313655
aF-122.33453881301784
aF47.615637191979665
asI7393
(lp833
F-122.36330130445559
aF47.62356975013275
aF-122.36329278072631
aF47.62456932338275
asI16954
(lp834
F-122.31766206542397
aF47.65979437111646
aF-122.31669931684151
aF47.65978267763161
asI36117
(lp835
F-122.35061212857839
aF47.614542707293765
aF-122.35149767943189
aF47.61506651899167
asI23781
(lp836
F-122.39288425471523
aF47.657068770407015
aF-122.39289612130912
aF47.656833558940455
asI7398
(lp837
F-122.36317169301647
aF47.62963185784325
aF-122.36316782689673
aF47.63042501125595
asI70865
(lp838
F-122.33168730515875
aF47.599147646459734
aF-122.33168989475517
aF47.59839308297395
asI13545
(lp839
F-122.32279966121159
aF47.680143383228675
aF-122.32270965888236
aF47.680155841841795
asI13546
(lp840
F-122.34165502459594
aF47.63974320274652
aF-122.3432411952431
aF47.64222754058579
asI74034
(lp841
F-122.34522241923281
aF47.616246833784544
aF-122.34601536911588
aF47.616715401855274
asI13549
(lp842
F-122.33977500502883
aF47.62752958030786
aF-122.3405081357567
aF47.62854195577314
asI13550
(lp843
F-122.32281700424231
aF47.680846347395935
aF-122.32182480749681
aF47.6808644804055
asI79741
(lp844
F-122.32800242609538
aF47.61424031804218
aF-122.32798498311506
aF47.61523086514354
asI35838
(lp845
F-122.31323477314172
aF47.65350779007665
aF-122.31319026388786
aF47.655245827665745
asI54513
(lp846
F-122.34607264604286
aF47.612028889876214
aF-122.3452853629319
aF47.612638164059476
asI58610
(lp847
F-122.35202014267598
aF47.613335707499104
aF-122.35132082110833
aF47.613866091798165
asI13129
(lp848
F-122.32610019955861
aF47.66325037185361
aF-122.32607631717713
aF47.664905610515504
asI54517
(lp849
F-122.34004490026999
aF47.616694019869776
aF-122.33933429860865
aF47.617243239469765
asI9462
(lp850
F-122.32129124608274
aF47.635919029723034
aF-122.32134052372076
aF47.63597509723222
asI76626
(lp851
F-122.35216184314437
aF47.61343000576047
aF-122.35387063388247
aF47.61444419905838
asI58621
(lp852
F-122.34884800766106
aF47.615990585145965
aF-122.34806058408363
aF47.61659975836284
asI9470
(lp853
F-122.35634984912058
aF47.718106642211126
aF-122.3561833822505
aF47.7183766001767
asI70754
(lp854
F-122.34692066274417
aF47.614884070280816
aF-122.34771129876212
aF47.615351705048965
asI35433
(lp855
F-122.32865929242641
aF47.609922778352924
aF-122.32764154466625
aF47.6103486019534
asI36097
(lp856
F-122.33747949377896
aF47.60424300071759
aF-122.33807448661032
aF47.604893462497174
asI1282
(lp857
F-122.35714527569986
aF47.55011720396681
aF-122.35717153182645
aF47.54660512612772
asI58418
(lp858
F-122.33179123847515
aF47.615076864500274
aF-122.33219972238858
aF47.6155178684756
asI58629
(lp859
F-122.3435363514031
aF47.61044120604334
aF-122.34311610201566
aF47.61077181310062
asI21766
(lp860
F-122.38286007699878
aF47.56840615100403
aF-122.38407143093828
aF47.5684078799517
asI43905
(lp861
F-122.33408033788535
aF47.60095708133779
aF-122.33288459897129
aF47.60095561662327
asI36105
(lp862
F-122.34030580258394
aF47.60732633465115
aF-122.34118783844671
aF47.60829150490346
asI36106
(lp863
F-122.34016233393473
aF47.60742486406362
aF-122.34104011785597
aF47.60838538408574
asI79033
(lp864
F-122.33289548730305
aF47.61973621410776
aF-122.33225006456965
aF47.61973791757625
asI21773
(lp865
F-122.39216858008054
aF47.568421704209484
aF-122.39339600560346
aF47.568433237582276
asI3342
(lp866
F-122.38459929803676
aF47.64661692788709
aF-122.38460700324056
aF47.64841449306002
asI16941
(lp867
F-122.3131126352221
aF47.658374057585064
aF-122.31208586116276
aF47.658361952587505
asI9422
(lp868
F-122.32913216550996
aF47.63828317787089
aF-122.3291313397859
aF47.638675637194794
asI36113
(lp869
F-122.34972216510508
aF47.614016117795884
aF-122.35054226087321
aF47.61450136870129
asI32018
(lp870
F-122.34809144320732
aF47.61204595914085
aF-122.3473037190851
aF47.61265524364047
asI59950
(lp871
F-122.32615067422107
aF47.614022087888664
aF-122.32558604162483
aF47.61402507302207
asI32022
(lp872
F-122.34636707990393
aF47.61337969328969
aF-122.34557942547427
aF47.613988788356835
asI87257
(lp873
F-122.38311152554847
aF47.66875902106888
aF-122.38463617793111
aF47.668760527574186
asI32026
(lp874
F-122.34464540296088
aF47.61471500418997
aF-122.34386874818406
aF47.615315575213465
asI10797
(lp875
F-122.31675604214982
aF47.571578747436476
aF-122.31673933797711
aF47.57077264323509
asI36125
(lp876
F-122.35476953061702
aF47.616972204262865
aF-122.35599879061846
aF47.61769727931539
asI8001
(lp877
F-122.32603921631302
aF47.571681114882026
aF-122.32604158292887
aF47.571594573618746
asI79014
(lp878
F-122.32401327654107
aF47.604827880702246
aF-122.32311548345449
aF47.6052033618338
asI58078
(lp879
F-122.33740932925883
aF47.606104040339886
aF-122.3364607768063
aF47.6065005503133
asI81185
(lp880
F-122.3401747861194
aF47.60744233228901
aF-122.33970720012547
aF47.607639574365834
asI34518
(lp881
F-122.33247116273218
aF47.62600234001648
aF-122.33247309524332
aF47.626650470177466
asI13293
(lp882
F-122.40113637654225
aF47.6963412415723
aF-122.40081165821415
aF47.69673016732505
asI9509
(lp883
F-122.33496068882604
aF47.65918109496898
aF-122.33494538078472
aF47.66026712130617
asI9510
(lp884
F-122.33504963447291
aF47.66034177401074
aF-122.33503289759649
aF47.66118424870064
asI53809
(lp885
F-122.3398400637693
aF47.623266393282144
aF-122.33983041360193
aF47.62446785418476
asI36137
(lp886
F-122.33809426510848
aF47.61552457377424
aF-122.33813793001391
aF47.61619051169109
asI83242
(lp887
F-122.35108383424598
aF47.65139843715339
aF-122.35062953917868
aF47.65136914421587
asI59954
(lp888
F-122.32546898454692
aF47.614020224421594
aF-122.32452164004913
aF47.614025568176764
asI36142
(lp889
F-122.33780794392604
aF47.616604355809635
aF-122.33817794784706
aF47.61755878143004
asI60225
(lp890
F-122.32333900537436
aF47.61304710131898
aF-122.32210156472433
aF47.61304722180154
asI54737
(lp891
F-122.32103430674277
aF47.6231636697793
aF-122.32105126312729
aF47.624229964092734
asI32053
(lp892
F-122.3245787377259
aF47.61527904091547
aF-122.324591988137
aF47.616328202332724
asI32054
(lp893
F-122.32436812182056
aF47.61529665120898
aF-122.32438136798956
aF47.61634581265031
asI43913
(lp894
F-122.32630118590345
aF47.6009366104448
aF-122.32505412205137
aF47.600934247957106
asI68921
(lp895
F-122.35075726939297
aF47.61577954084482
aF-122.3516090093758
aF47.61628319629538
asI58682
(lp896
F-122.34948343463667
aF47.614038574879025
aF-122.34874859363707
aF47.614606456135924
asI53237
(lp897
F-122.32644588696654
aF47.59913142699298
aF-122.32644876392422
aF47.59841272857863
asI58685
(lp898
F-122.3479068757477
aF47.61544159052509
aF-122.34717319534715
aF47.616009795402455
asI58686
(lp899
F-122.34776638267003
aF47.615358651237564
aF-122.34703004340572
aF47.61592891396355
asI88629
(lp900
F-122.33145571536188
aF47.5983587901522
aF-122.33050151824507
aF47.59836023144729
asI23873
(lp901
F-122.3567962397913
aF47.623337394728374
aF-122.35799333420678
aF47.62334157477546
asI77122
(lp902
F-122.3429375947738
aF47.61605168273173
aF-122.3421542814657
aF47.61665725177912
asI81693
(lp903
F-122.33050475467583
aF47.62086792647921
aF-122.3305098454412
aF47.62191554885509
asI77125
(lp904
F-122.34220386509395
aF47.6167937790663
aF-122.34142073994352
aF47.6173987869817
asI11590
(lp905
F-122.2881981687316
aF47.603677643333995
aF-122.28803925314365
aF47.60367473626117
asI77129
(lp906
F-122.34134091440345
aF47.61746048132314
aF-122.3406277074567
aF47.61801166936919
asI46410
(lp907
F-122.33405744002756
aF47.59823966977983
aF-122.33405851508415
aF47.596490527813536
asI11598
(lp908
F-122.32500883200107
aF47.60931508378066
aF-122.32406000793682
aF47.609711906235475
asI33677
(lp909
F-122.32971801707276
aF47.61759373687731
aF-122.32939997495106
aF47.61784020665646
asI54609
(lp910
F-122.32323601305593
aF47.61217801636147
aF-122.32383034197136
aF47.61282935185372
asI54610
(lp911
F-122.32310357357284
aF47.61223648639015
aF-122.32369790251603
aF47.6128878218579
asI81198
(lp912
F-122.32788646450007
aF47.6124586362324
aF-122.32685752820086
aF47.61290558408784
asI31065
(lp913
F-122.3411813927617
aF47.62094175966535
aF-122.34117184497083
aF47.62203531181814
asI120206
(lp914
F-122.33998078877009
aF47.635203028599115
aF-122.34000234543231
aF47.63640149626795
asI16953
(lp915
F-122.28473571119677
aF47.66492371687991
aF-122.28354856988958
aF47.66492464203638
asI36126
(lp916
F-122.35468926763701
aF47.617117678906666
aF-122.35585752348612
aF47.61780677118939
asI81130
(lp917
F-122.34222874473095
aF47.620811109897474
aF-122.34116594799914
aF47.62080747146565
asI81242
(lp918
F-122.33705215502391
aF47.62564395433984
aF-122.33628539009051
aF47.62564115695988
asI70741
(lp919
F-122.33995041762705
aF47.61026237407073
aF-122.3405246214925
aF47.6108898682988
asI33338
(lp920
F-122.3499404664597
aF47.6506022836984
aF-122.35117068756746
aF47.65145436935852
asI81246
(lp921
F-122.33430225804942
aF47.6258817515793
aF-122.33265762308959
aF47.62587896097009
asI7397
(lp922
F-122.36311297658965
aF47.628770156260906
aF-122.3630686168784
aF47.629556597543115
asI81249
(lp923
F-122.33077721885321
aF47.62602622078599
aF-122.33027870287417
aF47.62603070216328
asI8397
(lp924
F-122.36593579876163
aF47.679582239142185
aF-122.36593250053835
aF47.68140840815347
asI76042
(lp925
F-122.32956513471451
aF47.607560282905034
aF-122.33011905522886
aF47.608177117190586
asI81126
(lp926
F-122.34353985802741
aF47.62082656868729
aF-122.34253230695516
aF47.620820801786714
asI120166
(lp927
F-122.3403115375084
aF47.62861990139606
aF-122.34053126915697
aF47.62898403665895
asI56682
(lp928
F-122.34464363353919
aF47.61118037367025
aF-122.3439142075324
aF47.611744082070324
asI32490
(lp929
F-122.35052182005447
aF47.617024230213396
aF-122.34980397439448
aF47.617579552421695
asI56685
(lp930
F-122.34046860489875
aF47.61458696608089
aF-122.33975028036897
aF47.6151425000008
asI56686
(lp931
F-122.34033774877385
aF47.61451323566552
aF-122.33963006598863
aF47.61506053873269
asI120175
(lp932
F-122.34062513404366
aF47.630938233012174
aF-122.3406218901766
aF47.6320723738897
asI56689
(lp933
F-122.33874281660577
aF47.61592097674728
aF-122.33815998940113
aF47.61637169004343
asI56690
(lp934
F-122.33861595096215
aF47.615844157702
aF-122.33815022185179
aF47.61620431648679
asI81129
(lp935
F-122.34221957589659
aF47.62095637930815
aF-122.34115273518714
aF47.6209527267649
asI32121
(lp936
F-122.33596766088286
aF47.6197229961172
aF-122.3359589953417
aF47.62079575602632
asI46458
(lp937
F-122.35795767630425
aF47.62216234856204
aF-122.3579494804152
aF47.62323186957052
asI27393
(lp938
F-122.33034608800087
aF47.60165891018608
aF-122.33034909057103
aF47.6008991262447
asI32125
(lp939
F-122.33596059832011
aF47.62207274820091
aF-122.33595216533027
aF47.623128658050206
asI32126
(lp940
F-122.33573339243945
aF47.622088331979185
aF-122.33572497654924
aF47.623141506357335
asI79765
(lp941
F-122.35661971831559
aF47.62465804273631
aF-122.35546394168544
aF47.62465385685728
asI35713
(lp942
F-122.32113805801987
aF47.60317421767205
aF-122.32173297794263
aF47.60382505731495
asI32129
(lp943
F-122.33594297526125
aF47.623262687287394
aF-122.33593311428997
aF47.62447473949595
asI32130
(lp944
F-122.33571588419254
aF47.62326321040736
aF-122.33570595101997
aF47.62448347073584
asI71574
(lp945
F-122.38746552026892
aF47.66950421054265
aF-122.38746555648073
aF47.67015987843148
asI81289
(lp946
F-122.3479815995843
aF47.61666919958209
aF-122.34726905232026
aF47.61722049947009
asI81290
(lp947
F-122.34780039034266
aF47.61658026470131
aF-122.34707986603368
aF47.61713773463862
asI28962
(lp948
F-122.34803092969129
aF47.61788882892209
aF-122.34890081571346
aF47.61840301052185
asI35198
(lp949
F-122.33704998747068
aF47.62314932241153
aF-122.3359152571622
aF47.62314484155424
asI54669
(lp950
F-122.353403497922
aF47.616357081802455
aF-122.3526694388058
aF47.61692557364535
asI30094
(lp951
F-122.32755865968971
aF47.6016838141766
aF-122.32755882161585
aF47.60185371031267
asI81133
(lp952
F-122.33161529301105
aF47.62088589668941
aF-122.33047629368414
aF47.62088864877058
asI11665
(lp953
F-122.3322154144873
aF47.605459181309755
aF-122.3311977649868
aF47.60588523652248
asI11669
(lp954
F-122.32780362301098
aF47.607282339491654
aF-122.32678629411117
aF47.60770790346421
asI11670
(lp955
F-122.30105049704528
aF47.62746243285584
aF-122.3004329708314
aF47.627455046088095
asI69282
(lp956
F-122.31799757739097
aF47.61298690879481
aF-122.31801448600395
aF47.61404608667615
asI76197
(lp957
F-122.34118736676572
aF47.61977790585507
aF-122.34117793344821
aF47.62087339883999
asI1433
(lp958
F-122.37081637497978
aF47.66573312591103
aF-122.37081548137951
aF47.66638790895379
asI11674
(lp959
F-122.32437938102532
aF47.60862114418627
aF-122.32336182458162
aF47.609046776322394
asI35714
(lp960
F-122.32100014407692
aF47.60323188073464
aF-122.32159506293421
aF47.60388272109784
asI56901
(lp961
F-122.33731362087265
aF47.604311041855
aF-122.33690593390273
aF47.60448167117207
asI75169
(lp962
F-122.34191885753077
aF47.615240816122295
aF-122.34308495013657
aF47.61592963720963
asI77218
(lp963
F-122.3442322391357
aF47.61326497098809
aF-122.34344446882454
aF47.6138742755575
asI59374
(lp964
F-122.3257332695607
aF47.680370160106555
aF-122.32599490159754
aF47.68072008741196
asI59953
(lp965
F-122.32543033020606
aF47.614154780292274
aF-122.32448298324965
aF47.61416012355025
asI77382
(lp966
F-122.31980903204396
aF47.61222272663334
aF-122.31980467555026
aF47.6128828162681
asI34214
(lp967
F-122.33389356562381
aF47.60560868015232
aF-122.33294166666184
aF47.606006563680374
asI58609
(lp968
F-122.35219094308329
aF47.61343684717043
aF-122.35149161926212
aF47.613967231149054
asI64318
(lp969
F-122.37894523072121
aF47.668588878239056
aF-122.3801588945788
aF47.66859067167061
asI77225
(lp970
F-122.34177149128311
aF47.6153592264192
aF-122.34098618367368
aF47.61596629267603
asI77226
(lp971
F-122.34162594847352
aF47.61526769869705
aF-122.34084064054744
aF47.61587476395094
asI24413
(lp972
F-122.31828773372816
aF47.6164216051209
aF-122.31830529547436
aF47.61751617773963
asI32173
(lp973
F-122.32347931768177
aF47.61302298418072
aF-122.32344255632752
aF47.61402691652585
asI58798
(lp974
F-122.33597289080983
aF47.60287264161473
aF-122.33656813736738
aF47.603523127311924
asI58409
(lp975
F-122.32375157248467
aF47.606034947276356
aF-122.32434661893019
aF47.60668635837097
asI120240
(lp976
F-122.34010089608984
aF47.63707549957215
aF-122.34014543988299
aF47.63731638601716
asI32177
(lp977
F-122.32351782199113
aF47.61529039217276
aF-122.32353901997963
aF47.61634893607824
asI11778
(lp978
F-122.33166051125525
aF47.62421739563525
aF-122.33051072503928
aF47.62422040474884
asI53241
(lp979
F-122.32645244471865
aF47.59746066318546
aF-122.32645549339219
aF47.59669554879059
asI13142
(lp980
F-122.33578778263713
aF47.620932060142195
aF-122.33444219624369
aF47.62092669987241
asI89525
(lp981
F-122.3328037490284
aF47.600944511078076
aF-122.3315714819579
aF47.600942306473726
asI58806
(lp982
F-122.34357351735378
aF47.61037445947681
aF-122.34383586440941
aF47.61070456360403
asI1278
(lp983
F-122.37999670260382
aF47.561059521040995
aF-122.37995252951772
aF47.56096988741854
asI58809
(lp984
F-122.34532589218065
aF47.611409306249925
aF-122.3461360281384
aF47.61188820725128
asI58810
(lp985
F-122.34477297641075
aF47.61125720536297
aF-122.34599119880113
aF47.61197737778533
asI80554
(lp986
F-122.33292275234788
aF47.62306413302671
aF-122.33176662093324
aF47.62306735037505
asI81482
(lp987
F-122.3460653914353
aF47.612032173379006
aF-122.34727411813715
aF47.6127469445439
asI59038
(lp988
F-122.33033593171365
aF47.622007567286694
aF-122.33034126282786
aF47.623085115119416
asI9461
(lp989
F-122.32120259265685
aF47.6350627814781
aF-122.32119615500662
aF47.63581374990965
asI58817
(lp990
F-122.35353709239546
aF47.616245067526904
aF-122.3547237803801
aF47.616945212261264
asI58818
(lp991
F-122.35336912142208
aF47.61634607852615
aF-122.3545558097097
aF47.617046225006696
asI65818
(lp992
F-122.32496370736425
aF47.59994763978129
aF-122.3238359697264
aF47.599945690205665
asI11717
(lp993
F-122.32515386090955
aF47.59997005295245
aF-122.32515632185256
aF47.59925379517273
asI11718
(lp994
F-122.32495120380997
aF47.59996836744483
aF-122.32495370050277
aF47.59924254126197
asI57197
(lp995
F-122.33310565718571
aF47.623174585329814
aF-122.33311209131728
aF47.62425333781581
asI9673
(lp996
F-122.40774925398074
aF47.56664509322659
aF-122.40746735300095
aF47.566449883659956
asI9674
(lp997
F-122.40739827757632
aF47.56637608968659
aF-122.40668330313669
aF47.565019499418995
asI69489
(lp998
F-122.31536344754333
aF47.66316114012588
aF-122.31534087947847
aF47.66486596251311
asI9677
(lp999
F-122.29588901832344
aF47.573519447186
aF-122.29515653919091
aF47.57256039175089
asI54734
(lp1000
F-122.32077866040724
aF47.62110947069251
aF-122.3207919940418
aF47.62194793093338
asI58834
(lp1001
F-122.33834325414783
aF47.62093102402691
aF-122.3383346032146
aF47.62197517458912
asI81134
(lp1002
F-122.33164283995312
aF47.62074875457381
aF-122.33045941463192
aF47.62075161405571
asI54738
(lp1003
F-122.32081940148414
aF47.623165231615864
aF-122.32083604916711
aF47.624212387349516
asI1277
(lp1004
F-122.32503322096095
aF47.52222751062292
aF-122.32502798472179
aF47.51872833612328
asI36309
(lp1005
F-122.32482516713522
aF47.6791259810495
aF-122.32459107652272
aF47.679751319771114
asI36310
(lp1006
F-122.32468348548329
aF47.67910179163833
aF-122.32443352228246
aF47.67976952593556
asI81066
(lp1007
F-122.34616394998778
aF47.618093400971304
aF-122.3462149247314
aF47.618568097650254
asI36313
(lp1008
F-122.32462681794466
aF47.6798652541148
aF-122.32474517160139
aF47.680454261424515
asI69082
(lp1009
F-122.33407573527809
aF47.59998115755985
aF-122.33407836418492
aF47.599267531948705
asI13789
(lp1010
F-122.30103009860854
aF47.60435960267104
aF-122.30001388073123
aF47.604357046517904
asI13790
(lp1011
F-122.29990319439557
aF47.604355599200105
aF-122.2989577364889
aF47.604332516238756
asI8101
(lp1012
F-122.41194095735047
aF47.57772401715191
aF-122.41199131847434
aF47.57596105129582
asI76429
(lp1013
F-122.33986714069087
aF47.619771019353834
aF-122.33985857152467
aF47.62081906418799
asI13793
(lp1014
F-122.2967475501702
aF47.604205208853216
aF-122.2959191880163
aF47.60418512382607
asI54754
(lp1015
F-122.31980445576866
aF47.61163479468969
aF-122.31980152446484
aF47.61212712492066
asI69093
(lp1016
F-122.31954479299662
aF47.613002347737016
aF-122.31955569755151
aF47.6140327053697
asI9702
(lp1017
F-122.3349350426898
aF47.6996201961301
aF-122.3349790839621
aF47.701374712595346
asI24041
(lp1018
F-122.34664824621014
aF47.61334949016936
aF-122.34786648935331
aF47.61406962670849
asI69098
(lp1019
F-122.3340441999529
aF47.59564118403121
aF-122.33404846814676
aF47.59249974836191
asI51470
(lp1020
F-122.33155930714915
aF47.60474782331053
aF-122.33211169814294
aF47.60535140210218
asI54766
(lp1021
F-122.31431036546452
aF47.6568689829432
aF-122.31427361037177
aF47.65826733958614
asI9469
(lp1022
F-122.32079505468191
aF47.64565412216951
aF-122.32079245169344
aF47.64688249896921
asI24049
(lp1023
F-122.3542333068446
aF47.61782749881545
aF-122.35513145282584
aF47.61835712913823
asI24050
(lp1024
F-122.35426711340016
aF47.61805478299573
aF-122.3550587024584
aF47.618521575950304
asI58085
(lp1025
F-122.32642151349218
aF47.61086521130497
aF-122.32540439823022
aF47.61129059704472
asI76034
(lp1026
F-122.32695364620724
aF47.60470597375786
aF-122.32750779592196
aF47.605311864391886
asI34293
(lp1027
F-122.3374628136507
aF47.60326425405895
aF-122.33682381571846
aF47.60353197479235
asI34294
(lp1028
F-122.33737315758253
aF47.60316637164572
aF-122.33673416039082
aF47.603434091876125
asI79785
(lp1029
F-122.33300703297829
aF47.62431803033663
aF-122.33179044156213
aF47.624321231832475
asI9721
(lp1030
F-122.30570644720092
aF47.55589228693343
aF-122.30560446867534
aF47.55578892615718
asI11770
(lp1031
F-122.35403014624288
aF47.624484906798
aF-122.35291391265872
aF47.62448253199642
asI34301
(lp1032
F-122.33622082089973
aF47.60378441150669
aF-122.33572381263549
aF47.60399245436213
asI79358
(lp1033
F-122.34205145411373
aF47.6131885735139
aF-122.34134890352686
aF47.61373157481506
asI81493
(lp1034
F-122.33860929680475
aF47.62210334574092
aF-122.33860083022421
aF47.62315365375651
asI77313
(lp1035
F-122.3225568003425
aF47.61144962399826
aF-122.32315137840594
aF47.612100898320605
asI32258
(lp1036
F-122.3206478837461
aF47.60957720535208
aF-122.32064877203699
aF47.61011829413984
asI9421
(lp1037
F-122.32195048479754
aF47.610748630959066
aF-122.32254486315178
aF47.61140001317838
asI77317
(lp1038
F-122.32347557972514
aF47.61415976915134
aF-122.32348762713833
aF47.61516244022518
asI36358
(lp1039
F-122.32897707855417
aF47.601663165371775
aF-122.32643631923263
aF47.60165252997981
asI1281
(lp1040
F-122.35785793212825
aF47.66150350962793
aF-122.35791154992411
aF47.661577424301626
asI11785
(lp1041
F-122.3339062600341
aF47.653171003494805
aF-122.33389271774989
aF47.65427855935879
asI32266
(lp1042
F-122.3208012741538
aF47.62202166678573
aF-122.32081818585756
aF47.623088648366526
asI36098
(lp1043
F-122.33729466381912
aF47.60431711885288
aF-122.33788965492846
aF47.604967581601365
asI81422
(lp1044
F-122.35401578181732
aF47.623266387376205
aF-122.3540058091178
aF47.62450124976614
asI10157
(lp1045
F-122.32894764292541
aF47.65914340300435
aF-122.32893245108195
aF47.660237254939084
asI88774
(lp1046
F-122.32627651997345
aF47.59996339594294
aF-122.32508083247808
aF47.59996154437313
asI75281
(lp1047
F-122.32775173931836
aF47.59835607870395
aF-122.3277562430116
aF47.59751963219936
asI75282
(lp1048
F-122.32758575380443
aF47.59832013399948
aF-122.32758986244826
aF47.59755749159003
asI81497
(lp1049
F-122.33879614184069
aF47.62578224265644
aF-122.33942346093094
aF47.62665553377539
asI69134
(lp1050
F-122.35798576942227
aF47.619079873203034
aF-122.35798005378656
aF47.61972988392587
asI36101
(lp1051
F-122.33878442504029
aF47.605653855271036
aF-122.33937780655839
aF47.60630218012066
asI32289
(lp1052
F-122.31431828910532
aF47.66315768556157
aF-122.31429213963108
aF47.66485158079914
asI32290
(lp1053
F-122.31415191308567
aF47.66315651336187
aF-122.31412575819095
aF47.66485040856127
asI77349
(lp1054
F-122.35252576926698
aF47.617024231997924
aF-122.35178506232668
aF47.61759679058009
asI56241
(lp1055
F-122.33058531355235
aF47.61693240627786
aF-122.3298504811398
aF47.61749996800627
asI1577
(lp1056
F-122.31573892523075
aF47.673397108478554
aF-122.31573899377254
aF47.674091350536656
asI11782
(lp1057
F-122.33384728038705
aF47.64921841231182
aF-122.33383308808718
aF47.65045073323437
asI81478
(lp1058
F-122.34103755780629
aF47.60839301176926
aF-122.34189411043016
aF47.60932689569026
asI9394
(lp1059
F-122.32345213630393
aF47.64323006842516
aF-122.32342350553573
aF47.643296888875454
asI81454
(lp1060
F-122.35407173927562
aF47.61795200452583
aF-122.35406646474664
aF47.61858578696943
asI35421
(lp1061
F-122.33529325674908
aF47.60714686946367
aF-122.33434455942667
aF47.6075439563887
asI10282
(lp1062
F-122.35135297925696
aF47.67391251576548
aF-122.35134824481017
aF47.67455215932536
asI37129
(lp1063
F-122.32673106193916
aF47.614153404321485
aF-122.32620711081609
aF47.61415069891978
asI68549
(lp1064
F-122.35681892961794
aF47.619831170149695
aF-122.35801563495644
aF47.61983673852935
asI12601
(lp1065
F-122.31745887007301
aF47.676583897021395
aF-122.31746801625694
aF47.6772473028128
asI81190
(lp1066
F-122.33454995601437
aF47.60966289362215
aF-122.3336018569717
aF47.610059722709266
asI12869
(lp1067
F-122.32681295087484
aF47.609560140985934
aF-122.325795402738
aF47.609985768286165
asI1601
(lp1068
F-122.31481382166021
aF47.6985804811203
aF-122.31484656089307
aF47.69941491470176
asI1602
(lp1069
F-122.31484945948309
aF47.69948878262846
aF-122.31488220562773
aF47.70032321784278
asI80890
(lp1070
F-122.33517958657615
aF47.61494208616285
aF-122.33444553363093
aF47.61550943422687
asI81477
(lp1071
F-122.34121325444464
aF47.608319315649666
aF-122.34206980900831
aF47.60925319824967
asI56902
(lp1072
F-122.33722616327209
aF47.60421546249328
aF-122.33678764330577
aF47.60439899603342
asI89526
(lp1073
F-122.33287696425649
aF47.60081853266043
aF-122.33177600699858
aF47.60081656440143
asI81481
(lp1074
F-122.34618400576349
aF47.61190929478869
aF-122.34740186550479
aF47.61262946598308
asI56906
(lp1075
F-122.33678313705954
aF47.60439927002786
aF-122.33631358395085
aF47.60459587101289
asI12954
(lp1076
F-122.34270320943186
aF47.64819221339999
aF-122.34269035153085
aF47.64845414659626
asI11786
(lp1077
F-122.3337862658385
aF47.65435179604711
aF-122.33376933735804
aF47.655575148091536
asI77389
(lp1078
F-122.31444673307693
aF47.65838463734419
aF-122.31440930109866
aF47.659539629764474
asI77390
(lp1079
F-122.31426823275827
aF47.65838199658719
aF-122.31423079681647
aF47.659536988948915
asI120399
(lp1080
F-122.32440628387009
aF47.59758300434566
aF-122.32393817622598
aF47.59758240022469
asI58222
(lp1081
F-122.33603362607676
aF47.61428167313179
aF-122.33529130227015
aF47.614855713615924
asI120403
(lp1082
F-122.32440452779639
aF47.59829033531912
aF-122.32391054476209
aF47.59828972268089
asI21774
(lp1083
F-122.39350506133373
aF47.5684342764447
aF-122.39473294096778
aF47.56844614119883
asI37177
(lp1084
F-122.32439291198635
aF47.61530223350514
aF-122.32344468932966
aF47.6153077381361
asI11865
(lp1085
F-122.33020360191507
aF47.72311281958168
aF-122.32901668663598
aF47.72310325173809
asI11866
(lp1086
F-122.29495298163455
aF47.53445758760786
aF-122.29493562458141
aF47.5342737522658
asI11869
(lp1087
F-122.32347532799821
aF47.609092646826404
aF-122.32407003508519
aF47.60974333362467
asI11870
(lp1088
F-122.3228281701955
aF47.60837345083312
aF-122.32342277478993
aF47.609024692834105
asI14949
(lp1089
F-122.32175125125075
aF47.613049418852114
aF-122.32086855254569
aF47.61303380327975
asI55429
(lp1090
F-122.354718723013
aF47.61713666374432
aF-122.35399019708596
aF47.61770097862389
asI11873
(lp1091
F-122.32414441242122
aF47.60982468229318
aF-122.32473975297214
aF47.61047567829364
asI11874
(lp1092
F-122.3239972130856
aF47.609887847759644
aF-122.32459255278219
aF47.61053884470125
asI35430
(lp1093
F-122.3296930741989
aF47.609332555939616
aF-122.32867514852785
aF47.60975819326532
asI11878
(lp1094
F-122.32800177108551
aF47.61424985057757
aF-122.32864062194238
aF47.61494762778941
asI37137
(lp1095
F-122.32066832553717
aF47.614147748745815
aF-122.31945193255432
aF47.614156408873114
asI11881
(lp1096
F-122.33308692740319
aF47.61857302690886
aF-122.33309322382809
aF47.619647990241845
asI11882
(lp1097
F-122.33285983433703
aF47.618568164321196
aF-122.33286593399207
aF47.61961030417493
asI76050
(lp1098
F-122.33332658420964
aF47.611675640646105
aF-122.33416070071239
aF47.61258824730416
asI78781
(lp1099
F-122.34352858994333
aF47.622142507088626
aF-122.3425247041386
aF47.622138590465894
asI9150
(lp1100
F-122.29936306457587
aF47.54203118141109
aF-122.2992618567257
aF47.541694770291485
asI9149
(lp1101
F-122.29946206124384
aF47.54264147597063
aF-122.29929794483915
aF47.54211548974869
asI60009
(lp1102
F-122.31810030914929
aF47.61534804099382
aF-122.31695668453068
aF47.6153564009557
asI54305
(lp1103
F-122.34870281146965
aF47.61357334774886
aF-122.34791459650157
aF47.61418230847244
asI71290
(lp1104
F-122.38463708463024
aF47.66950601629214
aF-122.38463704364187
aF47.670161285330096
asI66614
(lp1105
F-122.32628655350393
aF47.597446487190055
aF-122.32509057528534
aF47.597444487270536
asI40573
(lp1106
F-122.31841198831869
aF47.65608141368921
aF-122.31809728815993
aF47.65625373472746
asI51477
(lp1107
F-122.33436424272222
aF47.607512905295394
aF-122.33491709022941
aF47.60811671108738
asI32049
(lp1108
F-122.32449714569731
aF47.61302221488429
aF-122.32451020561247
aF47.61405587830519
asI48770
(lp1109
F-122.3874271573744
aF47.66873978142758
aF-122.38743692418088
aF47.66944504523315
asI36118
(lp1110
F-122.35051367746233
aF47.61465202349133
aF-122.35135053860445
aF47.61514703553941
asI59014
(lp1111
F-122.32464634893269
aF47.68058150150691
aF-122.3250523384421
aF47.68115977907635
asI46729
(lp1112
F-122.31688568826353
aF47.60683773070574
aF-122.31688548713092
aF47.607372472160236
asI46730
(lp1113
F-122.31667487701678
aF47.606878618378964
aF-122.3166746791904
aF47.60739426193443
asI36493
(lp1114
F-122.31018697501878
aF47.6080885749708
aF-122.30899071935659
aF47.60808395152723
asI36494
(lp1115
F-122.31023648982243
aF47.607968138609124
aF-122.30904023692416
aF47.607963515686045
asI91829
(lp1116
F-122.35805674628206
aF47.6257786084947
aF-122.35921962707417
aF47.62578392789908
asI130708
(lp1117
F-122.31653039346064
aF47.65988747974487
aF-122.3164957302167
aF47.66121434293292
asI63125
(lp1118
F-122.31749338650388
aF47.65325719853261
aF-122.31669112713841
aF47.652695683455555
asI63126
(lp1119
F-122.31763642217454
aF47.6531638983641
aF-122.31681354484198
aF47.65258795332208
asI65817
(lp1120
F-122.32505203420808
aF47.600106799021695
aF-122.32375048352895
aF47.60010454887861
asI76717
(lp1121
F-122.3422148211413
aF47.6272065296288
aF-122.34110226288946
aF47.62720261368245
asI79022
(lp1122
F-122.3449347899933
aF47.61964741885536
aF-122.34392605787319
aF47.61964372349934
asI63130
(lp1123
F-122.31318470414384
aF47.65592918229472
aF-122.312182321163
aF47.65591829052495
asI80186
(lp1124
F-122.32877994579069
aF47.61343453111405
aF-122.3277640832197
aF47.61386011917639
asI1034
(lp1125
F-122.28320121354835
aF47.62126243076838
aF-122.28342209217013
aF47.62136509902389
asI81209
(lp1126
F-122.31324801042732
aF47.6598521636009
aF-122.31321371235359
aF47.66115956488479
asI43906
(lp1127
F-122.33407666368899
aF47.600820002202674
aF-122.33295970106077
aF47.600818634004995
asI9157
(lp1128
F-122.29142035304733
aF47.53582167639484
aF-122.29109742861324
aF47.53560593906059
asI59041
(lp1129
F-122.33051610348977
aF47.62315709327533
aF-122.33052512411263
aF47.624235413696375
asI59042
(lp1130
F-122.33034986060571
aF47.62315909730836
aF-122.3303588775239
aF47.62423741774594
asI9158
(lp1131
F-122.29313208632739
aF47.53666923053823
aF-122.2914932456864
aF47.53559197177247
asI59046
(lp1132
F-122.33074761564302
aF47.62601219158236
aF-122.33075400193232
aF47.626821609645944
asI24266
(lp1133
F-122.35797930094728
aF47.61982556750727
aF-122.35797189884822
aF47.62089960594323
asI54953
(lp1134
F-122.34977923064818
aF47.616574200056
aF-122.34906138096724
aF47.617129670117656
asI54954
(lp1135
F-122.34961996919293
aF47.61644745155278
aF-122.34887553223496
aF47.61702349351775
asI32429
(lp1136
F-122.3489021232543
aF47.61722787578623
aF-122.34818681475566
aF47.61778108208497
asI32430
(lp1137
F-122.348737287835
aF47.61713043733289
aF-122.34802463805819
aF47.6176815860943
asI28957
(lp1138
F-122.34631158141599
aF47.61666473695024
aF-122.34710289691213
aF47.6171327757178
asI35750
(lp1139
F-122.33289903868527
aF47.62075353745233
aF-122.33172567858846
aF47.6207567713037
asI32433
(lp1140
F-122.34804873756703
aF47.617891978319285
aF-122.34772546237203
aF47.61814173818739
asI32434
(lp1141
F-122.34789312628838
aF47.61779990008103
aF-122.34751903613143
aF47.61808891816617
asI32030
(lp1142
F-122.3437902854795
aF47.61537620366629
aF-122.34300266830711
aF47.61598471923927
asI59062
(lp1143
F-122.33279345876865
aF47.60165749927673
aF-122.3320120170298
aF47.60165571548424
asI34489
(lp1144
F-122.33199453293213
aF47.61760621081447
aF-122.33315391310462
aF47.61829234260428
asI59066
(lp1145
F-122.33002992625822
aF47.601655978970335
aF-122.3290244377386
aF47.601660954939746
asI12537
(lp1146
F-122.26178588479233
aF47.51178179064398
aF-122.2602737562805
aF47.5107865078341
asI62458
(lp1147
F-122.31730373450156
aF47.67576028844646
aF-122.31570792131794
aF47.67574680781252
asI11018
(lp1148
F-122.34016975404504
aF47.69056562732423
aF-122.34018632886749
aF47.692310743909445
asI76405
(lp1149
F-122.32617159185553
aF47.60697874544126
aF-122.32676685765948
aF47.6076291222914
asI33746
(lp1150
F-122.33169624609032
aF47.61959681791317
aF-122.33048585487957
aF47.61959975155415
asI76406
(lp1151
F-122.32600030803026
aF47.60705204943717
aF-122.3265955725321
aF47.60770242718228
asI79558
(lp1152
F-122.33803202906681
aF47.603876478981796
aF-122.33738711371436
aF47.60414790720113
asI51489
(lp1153
F-122.34275563724067
aF47.61455208114627
aF-122.34391283345668
aF47.61523600798507
asI24265
(lp1154
F-122.35812523416797
aF47.61983149310902
aF-122.35811779775815
aF47.6209109975068
asI34506
(lp1155
F-122.33288120796425
aF47.62085492577848
aF-122.33288756472655
aF47.621940962949644
asI32461
(lp1156
F-122.33425071668907
aF47.60265186141928
aF-122.3332345679154
aF47.60307713368789
asI24270
(lp1157
F-122.3579427732168
aF47.6233303656294
aF-122.35793512327203
aF47.62450793321709
asI36813
(lp1158
F-122.3102445615657
aF47.60623588001936
aF-122.30899804473995
aF47.60623052799731
asI32466
(lp1159
F-122.32751414389368
aF47.60531853294414
aF-122.32649615458595
aF47.60574419491522
asI62457
(lp1160
F-122.31729714798871
aF47.675897318091415
aF-122.31573778330029
aF47.67588414539469
asI34517
(lp1161
F-122.33266590962779
aF47.62602121499214
aF-122.33266777908204
aF47.62665994035102
asI79574
(lp1162
F-122.33060606070308
aF47.6069677164788
aF-122.32958507607793
aF47.60739470504995
asI10873
(lp1163
F-122.38547526065939
aF47.541914695586584
aF-122.38547918405096
aF47.541558648859784
asI12538
(lp1164
F-122.34221211698707
aF47.62317111418202
aF-122.34114492181628
aF47.62316718751308
asI79578
(lp1165
F-122.32613999273859
aF47.608841879325595
aF-122.3251910388702
aF47.6092388679245
asI10874
(lp1166
F-122.34663127723842
aF47.52280096916789
aF-122.34539321110258
aF47.521026450365085
asI51493
(lp1167
F-122.34906422080012
aF47.618629167164286
aF-122.34901487375846
aF47.61949875037028
asI51478
(lp1168
F-122.33416891045208
aF47.60761718368275
aF-122.3347217250047
aF47.608221003652595
asI8242
(lp1169
F-122.32756398765129
aF47.60540716283458
aF-122.32816765657167
aF47.6060668799638
asI120102
(lp1170
F-122.32937901432146
aF47.627829916077026
aF-122.32939361181174
aF47.62864273153608
asI35793
(lp1171
F-122.33793185405253
aF47.60837348018666
aF-122.33700335824138
aF47.60876139393494
asI77545
(lp1172
F-122.3331362161876
aF47.60311506598222
aF-122.33218773317203
aF47.603511973892154
asI77546
(lp1173
F-122.33304367625054
aF47.60300871901701
aF-122.33209519420285
aF47.60340562598435
asI77549
(lp1174
F-122.33203224736887
aF47.60357059111686
aF-122.33108360703385
aF47.603967545195715
asI77550
(lp1175
F-122.33194397552127
aF47.603468905417486
aF-122.33099533636127
aF47.603865858585834
asI10877
(lp1176
F-122.30772653057788
aF47.59268843716569
aF-122.30715473270465
aF47.59193585792592
asI80598
(lp1177
F-122.31727073150131
aF47.67589284660957
aF-122.31727978261006
aF47.67654951702287
asI55025
(lp1178
F-122.32602784295666
aF47.607058381333204
aF-122.32503480644371
aF47.60747346092919
asI55026
(lp1179
F-122.32594857007753
aF47.60696904742214
aF-122.32493148180814
aF47.60739417984459
asI66618
(lp1180
F-122.32497789109858
aF47.59743879599944
aF-122.32445505590978
aF47.597437797963266
asI42961
(lp1181
F-122.3249902303451
aF47.599281120379885
aF-122.32387498771512
aF47.59927927428806
asI77557
(lp1182
F-122.32537747730527
aF47.60635042422868
aF-122.32438511403396
aF47.60676526639615
asI18166
(lp1183
F-122.36803940477837
aF47.70585768672052
aF-122.36894554922486
aF47.70586094278591
asI52521
(lp1184
F-122.33800109377222
aF47.61294268668642
aF-122.33917330949373
aF47.61363586804576
asI84690
(lp1185
F-122.3142701056273
aF47.65825897895164
aF-122.31322310763518
aF47.65824649227999
asI77561
(lp1186
F-122.32314236326248
aF47.60727826057251
aF-122.32212557407203
aF47.60770336940891
asI77562
(lp1187
F-122.32306396900269
aF47.607182118479734
aF-122.32204717596609
aF47.60760722124291
asI72330
(lp1188
F-122.34888752244557
aF47.61723050777966
aF-122.34971177908753
aF47.61771772476119
asI52522
(lp1189
F-122.33785390728549
aF47.61306688028957
aF-122.33902612384402
aF47.61376006316295
asI69278
(lp1190
F-122.31799595064709
aF47.612367060126125
aF-122.31801357821566
aF47.612845546094434
asI35797
(lp1191
F-122.3357362894875
aF47.60930833529084
aF-122.33478810608622
aF47.609705085907635
asI77569
(lp1192
F-122.35329557066476
aF47.6151205508097
aF-122.35250807679178
aF47.615729388616295
asI77570
(lp1193
F-122.35312599384258
aF47.61501845432842
aF-122.35233849979005
aF47.61562729095967
asI77573
(lp1194
F-122.35243624918947
aF47.615784936286175
aF-122.35169918630528
aF47.61635497097651
asI53545
(lp1195
F-122.34115679772275
aF47.62545886093235
aF-122.34115033521458
aF47.62619685478812
asI48769
(lp1196
F-122.3877115127523
aF47.66875712118259
aF-122.38772116988547
aF47.66945418424724
asI31498
(lp1197
F-122.34751845077322
aF47.61083285498824
aF-122.34867004909019
aF47.611509292053746
asI11106
(lp1198
F-122.3293997985978
aF47.66760293529525
aF-122.32956509267672
aF47.66785479855949
asI36141
(lp1199
F-122.33814980299039
aF47.61644835806727
aF-122.33860061486881
aF47.617709999179404
asI36490
(lp1200
F-122.31145894034505
aF47.607976240233654
aF-122.31026280330266
aF47.607970995669575
asI60010
(lp1201
F-122.31809794092533
aF47.615200009174885
aF-122.31690178566605
aF47.615208752862856
asI81685
(lp1202
F-122.32984297092834
aF47.617480449434005
aF-122.33100639418963
aF47.61816863678533
asI81686
(lp1203
F-122.32967477634715
aF47.61761043844281
aF-122.33083820029044
aF47.61829862751123
asI2089
(lp1204
F-122.31275581274525
aF47.72309406017541
aF-122.31275450842206
aF47.723931430135686
asI36814
(lp1205
F-122.31020112299177
aF47.606120548828514
aF-122.30899103276195
aF47.60611535288307
asI59013
(lp1206
F-122.32478534197159
aF47.68054910591623
aF-122.32517918757654
aF47.681110084295675
asI79649
(lp1207
F-122.33442911621434
aF47.60453423722042
aF-122.33341458028687
aF47.6049580677023
asI32546
(lp1208
F-122.33480946383395
aF47.60325643248827
aF-122.33386097976589
aF47.603653108633154
asI79653
(lp1209
F-122.3311134998347
aF47.60592048502801
aF-122.33009922446448
aF47.60634472174704
asI36646
(lp1210
F-122.32562387879032
aF47.67982186601427
aF-122.32565874043463
aF47.68011369721658
asI74033
(lp1211
F-122.34535138385087
aF47.61609730633881
aF-122.3461443326217
aF47.61656587368812
asI79657
(lp1212
F-122.32893783142367
aF47.60684326282586
aF-122.32791303326607
aF47.60727202757212
asI81706
(lp1213
F-122.33180171581164
aF47.60166095490317
aF-122.33037417564007
aF47.601658766096406
asI58641
(lp1214
F-122.33574789826561
aF47.616475989760396
aF-122.33499809710321
aF47.61705575624185
asI77613
(lp1215
F-122.33045260374722
aF47.60521108154965
aF-122.3294996733179
aF47.60560952556272
asI32558
(lp1216
F-122.3237094086256
aF47.60789881531752
aF-122.32269234720344
aF47.60832395461639
asI60005
(lp1217
F-122.31946696359631
aF47.61534108519409
aF-122.31827009356753
aF47.615349566336995
asI77618
(lp1218
F-122.32816188934721
aF47.606049820690245
aF-122.32714410511365
aF47.60647558794878
asI12541
(lp1219
F-122.33832471466869
aF47.62326903858984
aF-122.33723880670178
aF47.6232651746036
asI7989
(lp1220
F-122.33276470161015
aF47.60917848523487
aF-122.33357975420806
aF47.61005917353943
asI7990
(lp1221
F-122.33261778711763
aF47.60924711332527
aF-122.33343283830921
aF47.610127802856184
asI72329
(lp1222
F-122.3490285872511
aF47.61711725580771
aF-122.34983459409723
aF47.61759368457
asI79674
(lp1223
F-122.32498654982658
aF47.59913051558224
aF-122.32498967308389
aF47.59836542880933
asI51481
(lp1224
F-122.33592121624845
aF47.60922435375264
aF-122.33675070469326
aF47.6101312478681
asI7997
(lp1225
F-122.32609949480354
aF47.57768955536895
aF-122.32610097150368
aF47.57561267088244
asI7998
(lp1226
F-122.3258579388646
aF47.57553871705788
aF-122.32585859034968
aF47.57442227384329
asI58677
(lp1227
F-122.35119187430722
aF47.612895405965006
aF-122.35058130477196
aF47.61336490224777
asI79681
(lp1228
F-122.32515066876677
aF47.59661436863724
aF-122.32515323758567
aF47.59592294152735
asI69442
(lp1229
F-122.31668850254283
aF47.611596835904024
aF-122.31664553455215
aF47.61284954572977
asI8005
(lp1230
F-122.32687880092071
aF47.569156055971526
aF-122.32686772982613
aF47.56895577967331
asI69446
(lp1231
F-122.31667171775237
aF47.61297649880343
aF-122.31676197174997
aF47.61404637967372
asI58501
(lp1232
F-122.33375735010145
aF47.60877621643332
aF-122.33280220065794
aF47.60917621934097
asI9473
(lp1233
F-122.32097919008534
aF47.61996168624832
aF-122.32099678233148
aF47.62105594757362
asI10210
(lp1234
F-122.38044403541188
aF47.58669604180035
aF-122.38049847998172
aF47.586027058245776
asI27277
(lp1235
F-122.34491009571441
aF47.614664241598675
aF-122.34607989784622
aF47.61535522092887
asI58574
(lp1236
F-122.33572756590227
aF47.62564790930335
aF-122.33512642233144
aF47.62566544270441
asI12542
(lp1237
F-122.25641173114656
aF47.508213047038815
aF-122.25587238924031
aF47.507711792625564
asI46726
(lp1238
F-122.31667505426299
aF47.606257510512805
aF-122.31667489685947
aF47.606818631951995
asI24405
(lp1239
F-122.31825529353709
aF47.61414558545076
aF-122.31827260275678
aF47.61523167919727
asI24406
(lp1240
F-122.31804445779362
aF47.61414575361599
aF-122.3180617626127
aF47.61523184739453
asI58681
(lp1241
F-122.34961424954217
aF47.61411233795366
aF-122.34887940866905
aF47.61468022005767
asI9678
(lp1242
F-122.29520016572046
aF47.57246213439021
aF-122.29461247407045
aF47.57168929036273
asI24409
(lp1243
F-122.31827008809549
aF47.61532744105855
aF-122.31828768953382
aF47.61641886545271
asI33674
(lp1244
F-122.33301945701265
aF47.61483955722255
aF-122.33228410799822
aF47.615410164502755
asI36138
(lp1245
F-122.33776543035539
aF47.61531048033683
aF-122.33782251387541
aF47.61606023918949
asI68922
(lp1246
F-122.35060246098227
aF47.61589923239592
aF-122.35145420142597
aF47.61640288900359
asI35846
(lp1247
F-122.31304339673602
aF47.66133718058084
aF-122.3130180452073
aF47.66299268457843
asI1222
(lp1248
F-122.33434863184416
aF47.552649586883454
aF-122.33434958962368
aF47.55196894809709
asI24417
(lp1249
F-122.31830648104331
aF47.61759007798188
aF-122.31832367552971
aF47.61868435932134
asI31314
(lp1250
F-122.33967926294567
aF47.62093329895682
aF-122.33967148249428
aF47.62198567256919
asI77261
(lp1251
F-122.33441418404458
aF47.61784904572873
aF-122.33529116410766
aF47.618398504301716
asI34661
(lp1252
F-122.33722186514221
aF47.61282094703658
aF-122.33634071053541
aF47.613189316301884
asI57190
(lp1253
F-122.32140061869721
aF47.60702962325379
aF-122.32197605328396
aF47.60765963457899
asI27281
(lp1254
F-122.34809438757192
aF47.6165650220229
aF-122.34889168140357
aF47.617036328365565
asI9474
(lp1255
F-122.32076425432943
aF47.61996052954014
aF-122.32078184205479
aF47.62105479089868
asI52529
(lp1256
F-122.34543970806607
aF47.61734406902436
aF-122.3462489573555
aF47.61782285968794
asI69485
(lp1257
F-122.31563893504618
aF47.65627985982081
aF-122.31562438238015
aF47.65683299802624
asI57198
(lp1258
F-122.33289474750178
aF47.623166945932425
aF-122.33290117700493
aF47.62424569860935
asI37181
(lp1259
F-122.32207868069149
aF47.61531690879647
aF-122.32085667363171
aF47.61532538361736
asI76621
(lp1260
F-122.34507750199685
aF47.60916400059065
aF-122.34638228782815
aF47.60992579384478
asI57201
(lp1261
F-122.33266493241865
aF47.62514936410464
aF-122.33266925604583
aF47.625903543023604
asI57202
(lp1262
F-122.33246207328175
aF47.62516083796265
aF-122.33246666353818
aF47.625925946978406
asI10801
(lp1263
F-122.34952838975401
aF47.64223026822258
aF-122.34790670753583
aF47.64222511489818
asI77118
(lp1264
F-122.34553973016438
aF47.614036132001054
aF-122.3448049245043
aF47.614604165225686
asI37138
(lp1265
F-122.32067418651476
aF47.61400514158609
aF-122.31944971453304
aF47.61401385941947
asI24441
(lp1266
F-122.31678491270041
aF47.656382382936684
aF-122.31676835639814
aF47.65684973896839
asI24442
(lp1267
F-122.3166353068591
aF47.65636629033525
aF-122.31661874921724
aF47.65683364634542
asI74029
(lp1268
F-122.34147452126513
aF47.61380916896398
aF-122.34263226793306
aF47.614493712676726
asI81421
(lp1269
F-122.354202046858
aF47.62329993216236
aF-122.3541924543184
aF47.624488247788555
asI30698
(lp1270
F-122.33442838172256
aF47.611218360303525
aF-122.3352376533067
aF47.61210300521167
asI79742
(lp1271
F-122.32774478710925
aF47.614031155623415
aF-122.32781711366218
aF47.614172101847416
asI12949
(lp1272
F-122.34223016994666
aF47.724201502218904
aF-122.34225878877824
aF47.72681966402704
asI24449
(lp1273
F-122.31669268486102
aF47.65988941471457
aF-122.31665802575772
aF47.661216277951965
asI81694
(lp1274
F-122.33033439108955
aF47.62085599572803
aF-122.33033966463218
aF47.62194191234071
asI76102
(lp1275
F-122.32363349618922
aF47.599963337703315
aF-122.32363652672983
aF47.59919795921424
asI53125
(lp1276
F-122.34106133576805
aF47.615899640085786
aF-122.34221766767227
aF47.616583594638946
asI53126
(lp1277
F-122.34089849379619
aF47.61602550719606
aF-122.34205482635706
aF47.61670946340163
asI120105
(lp1278
F-122.32939364270858
aF47.62864606225114
aF-122.32939704427785
aF47.62905151512158
asI53130
(lp1279
F-122.34220397400684
aF47.61679772244043
aF-122.34341336189087
aF47.617513064929476
asI48450
(lp1280
F-122.38462369491435
aF47.66769500021721
aF-122.38462383997279
aF47.66865381352213
asI53134
(lp1281
F-122.34486395002638
aF47.618617975182744
aF-122.34486482973783
aF47.61971358702097
asI24557
(lp1282
F-122.31692122532414
aF47.61044426095046
aF-122.31692079444626
aF47.6115380915257
asI53137
(lp1283
F-122.34513656326773
aF47.61979143553561
aF-122.34513741065635
aF47.620839246179166
asI53138
(lp1284
F-122.34484461838241
aF47.619791543097364
aF-122.34484545775263
aF47.62083661789574
asI25706
(lp1285
F-122.34044173631754
aF47.61106342161357
aF-122.34159904348294
aF47.61174792385238
asI79766
(lp1286
F-122.35662092229593
aF47.62450589218307
aF-122.35549343727673
aF47.624501809020124
asI12953
(lp1287
F-122.34242769869564
aF47.73256149029915
aF-122.34244431594024
aF47.73409195142828
asI77262
(lp1288
F-122.33443851156707
aF47.61803621643539
aF-122.33526808992646
aF47.61855597442138
asI80538
(lp1289
F-122.35532632484329
aF47.623194437559164
aF-122.35410966444095
aF47.62318997097591
asI8097
(lp1290
F-122.25643885575896
aF47.50614939810702
aF-122.256442500848
aF47.50587270750604
asI8098
(lp1291
F-122.25565468262931
aF47.50517519486598
aF-122.25577510883488
aF47.50513226963092
asI58645
(lp1292
F-122.33404135946509
aF47.61780379838916
aF-122.33329052481515
aF47.61838426587492
asI77126
(lp1293
F-122.34207838412121
aF47.61671588950955
aF-122.34129259493184
aF47.61732295436995
asI8102
(lp1294
F-122.41209879124709
aF47.57588858428341
aF-122.41215054486572
aF47.57415750304902
asI35825
(lp1295
F-122.32820563850133
aF47.611079509004654
aF-122.32718762155692
aF47.611505493174555
asI10153
(lp1296
F-122.32901466556152
aF47.65432028993301
aF-122.32899877791829
aF47.655519594586806
asI79786
(lp1297
F-122.33294577313879
aF47.6242085314942
aF-122.33181406265878
aF47.624211509355995
asI79789
(lp1298
F-122.33038605232099
aF47.624324905815975
aF-122.32921443135575
aF47.62432792172607
asI79790
(lp1299
F-122.33039562615787
aF47.624231669912774
aF-122.32922400754723
aF47.62423468574254
asI69277
(lp1300
F-122.31819870199057
aF47.61231171136074
aF-122.31821873606656
aF47.612872230950074
asI10161
(lp1301
F-122.3293496587965
aF47.617880632384505
aF-122.32928614685733
aF47.617960572376475
asI65806
(lp1302
F-122.33407984918763
aF47.599975613476225
aF-122.33167075097792
aF47.59997269302367
asI57077
(lp1303
F-122.3514019927133
aF47.624660247919
aF-122.34898158624995
aF47.62465502543422
asI10165
(lp1304
F-122.35662901740962
aF47.62629569178295
aF-122.35652845737606
aF47.62632120177145
asI23881
(lp1305
F-122.35688514601193
aF47.62577518550341
aF-122.35795194900274
aF47.62577822633514
asI12218
(lp1306
F-122.33645356276021
aF47.61174274100928
aF-122.33550437072505
aF47.61213960795459
asI77130
(lp1307
F-122.34121274804072
aF47.61738466540001
aF-122.34050220203154
aF47.61793379611757
asI1013
(lp1308
F-122.34405348748164
aF47.61181526055082
aF-122.3452723704535
aF47.612535792735954
asI58646
(lp1309
F-122.33388265204665
aF47.61770994971465
aF-122.33313181698047
aF47.61829041615473
asI80946
(lp1310
F-122.32352888382916
aF47.611049600982334
aF-122.32412422872535
aF47.61170049526919
asI9477
(lp1311
F-122.31433013337256
aF47.65603961611472
aF-122.31432642117093
aF47.65618086557418
asI1014
(lp1312
F-122.33409903915957
aF47.560255399040905
aF-122.33410029042308
aF47.55747815397566
asI80545
(lp1313
F-122.34100251329497
aF47.62328728743569
aF-122.33984762305349
aF47.623282965723526
asI80878
(lp1314
F-122.34206247037737
aF47.60966237601046
aF-122.34173564819488
aF47.60990547238534
asI1021
(lp1315
F-122.37104265681609
aF47.5118982226026
aF-122.37100450522645
aF47.511375471614166
asI36114
(lp1316
F-122.34960542342048
aF47.61411461530602
aF-122.35043463198615
aF47.614605258744454
asI12237
(lp1317
F-122.33234851671173
aF47.61857320870403
aF-122.33235499569469
aF47.619652677247736
asI12238
(lp1318
F-122.3317983029946
aF47.619717046899495
aF-122.33180483502504
aF47.62076487471153
asI79037
(lp1319
F-122.33225006456965
aF47.61973791757625
aF-122.33177575195505
aF47.61973916722515
asI42962
(lp1320
F-122.32498681291915
aF47.59910840042597
aF-122.32387157373057
aF47.59910655430406
asI33005
(lp1321
F-122.32926075575577
aF47.61971468987493
aF-122.32926710996676
aF47.6207235840508
asI58442
(lp1322
F-122.34487883327972
aF47.62082361171354
aF-122.3438835105454
aF47.620819893417384
asI54606
(lp1323
F-122.3211294049805
aF47.610073535330656
aF-122.32172360207831
aF47.6107244850877
asI1017
(lp1324
F-122.28280453363249
aF47.65845204747496
aF-122.28279608713355
aF47.66123674382987
asI54733
(lp1325
F-122.32099360074197
aF47.62111063965984
aF-122.32100693783563
aF47.62194909970006
asI10202
(lp1326
F-122.347154519835
aF47.6116865112056
aF-122.3481588626954
aF47.611918524014044
asI13306
(lp1327
F-122.34609168583064
aF47.6179169386498
aF-122.34535293472696
aF47.61846601430905
asI3082
(lp1328
F-122.3809398861924
aF47.503560326491765
aF-122.38092862962122
aF47.503216721253196
asI59045
(lp1329
F-122.33093005722397
aF47.62600606459961
aF-122.33093651119964
aF47.62682368606248
asI10209
(lp1330
F-122.35423501882275
aF47.61569620549582
aF-122.35463368625464
aF47.61593162488981
asI9478
(lp1331
F-122.32083644259015
aF47.62430390660218
aF-122.32082673407434
aF47.62497010314962
asI13297
(lp1332
F-122.40367891948726
aF47.637784782160885
aF-122.40260652577028
aF47.63857385371739
asI10213
(lp1333
F-122.36091390347902
aF47.62075196854318
aF-122.3610098766049
aF47.62083235682373
asI10214
(lp1334
F-122.3611623859913
aF47.621027225540914
aF-122.3618985932116
aF47.621636422645516
asI14673
(lp1335
F-122.315620287152
aF47.62838894715532
aF-122.31462615428295
aF47.628382044330884
asI24553
(lp1336
F-122.31688531743289
aF47.608108005112186
aF-122.31688537257011
aF47.60920197873644
asI10218
(lp1337
F-122.36554284524395
aF47.62469499164073
aF-122.36796722218769
aF47.62649840229238
asI30701
(lp1338
F-122.33642484379304
aF47.61314117297092
aF-122.33702308843263
aF47.61354301263166
asI24558
(lp1339
F-122.3166617641832
aF47.61044694845006
aF-122.31666132811102
aF47.611540779020864
asI35837
(lp1340
F-122.31342016722724
aF47.653564719747635
aF-122.31337545289807
aF47.65530275523707
asI30705
(lp1341
F-122.34459824839517
aF47.61799546510895
aF-122.34503470055765
aF47.61825371955497
asI30706
(lp1342
F-122.34444410383392
aF47.61812283947339
aF-122.3448362991202
aF47.61835490706461
asI3341
(lp1343
F-122.3846966857063
aF47.64478863539126
aF-122.38470444984523
aF47.646542836823926
asI80894
(lp1344
F-122.33430455158756
aF47.61561840721248
aF-122.33355442374719
aF47.61619834113534
asI53238
(lp1345
F-122.32627565933053
aF47.59912974872581
aF-122.32627853863858
aF47.59841105031574
asI59049
(lp1346
F-122.33481901574679
aF47.60180820243045
aF-122.33422669289182
aF47.601807392044336
asI24569
(lp1347
F-122.31695859642316
aF47.61417403398968
aF-122.31697501699105
aF47.61521380333246
asI53242
(lp1348
F-122.32628221715746
aF47.5974603527554
aF-122.32628513767922
aF47.59672802903573
asI35434
(lp1349
F-122.32855216266499
aF47.60981608297454
aF-122.32753441611491
aF47.610241905617876
asI12285
(lp1350
F-122.33242786342483
aF47.67011012187491
aF-122.33106155437797
aF47.670100510024625
asI12286
(lp1351
F-122.36320498746431
aF47.555240765233236
aF-122.3638221997258
aF47.555243783136056
asI14677
(lp1352
F-122.30988771957409
aF47.62864718774363
aF-122.3086748262353
aF47.62864094946243
as.